(ikiva.fonttools.font_manager
FontManager
p1
(dp2
S'afm_lookup_cache'
p3
(dp4
sS'ttflist'
p5
(lp6
ccopy_reg
_reconstructor
p7
(ckiva.fonttools.font_manager
FontEntry
p8
c__builtin__
object
p9
NtRp10
(dp11
S'style'
p12
S'italic'
p13
sS'name'
p14
S'STIXNonUnicode'
p15
sS'weight'
p16
I700
sS'stretch'
p17
S'normal'
p18
sS'variant'
p19
g18
sS'fname'
p20
S'/usr/share/fonts/stix-fonts/STIXNonUniBolIta.otf'
p21
sS'size'
p22
S'scalable'
p23
sbag7
(g8
g9
NtRp24
(dp25
g12
g18
sg14
S'Lohit Malayalam'
p26
sg16
I400
sg17
g18
sg19
g18
sg20
S'/usr/share/fonts/indic/lohit_ml.ttf'
p27
sg22
g23
sbag7
(g8
g9
NtRp28
(dp29
g12
g18
sg14
S'Mathematica3'
p30
sg16
I400
sg17
g18
sg19
g18
sg20
S'/usr/share/fonts/mathematica-fonts/Mathematica3.ttf'
p31
sg22
g23
sbag7
(g8
g9
NtRp32
(dp33
g12
g18
sg14
S'Arial Black'
p34
sg16
I900
sg17
g18
sg19
g18
sg20
S'/usr/share/fonts/corefonts/ariblk.ttf'
p35
sg22
g23
sbag7
(g8
g9
NtRp36
(dp37
g12
g13
sg14
S'Courier New'
p38
sg16
I700
sg17
g18
sg19
g18
sg20
S'/usr/share/fonts/corefonts/courbi.ttf'
p39
sg22
g23
sbag7
(g8
g9
NtRp40
(dp41
g12
g18
sg14
S'Impact'
p42
sg16
I400
sg17
g18
sg19
g18
sg20
S'/usr/share/fonts/corefonts/impact.ttf'
p43
sg22
g23
sbag7
(g8
g9
NtRp44
(dp45
g12
g18
sg14
S'Symbola'
p46
sg16
I400
sg17
g18
sg19
g18
sg20
S'/usr/share/fonts/ancient-fonts/Symbola605.ttf'
p47
sg22
g23
sbag7
(g8
g9
NtRp48
(dp49
g12
g18
sg14
S'Aroania'
p50
sg16
I700
sg17
g18
sg19
g18
sg20
S'/usr/share/fonts/ancient-fonts/Aroania_B.otf'
p51
sg22
g23
sbag7
(g8
g9
NtRp52
(dp53
g12
g18
sg14
S'Mathematica1'
p54
sg16
I400
sg17
g18
sg19
g18
sg20
S'/usr/share/fonts/mathematica-fonts/Mathematica1.ttf'
p55
sg22
g23
sbag7
(g8
g9
NtRp56
(dp57
g12
g18
sg14
S'Serto Mardin'
p58
sg16
I400
sg17
g18
sg19
g18
sg20
S'/usr/share/fonts/OTF/SyrCOMMardin.otf'
p59
sg22
g23
sbag7
(g8
g9
NtRp60
(dp61
g12
g13
sg14
S'Liberation Serif'
p62
sg16
I700
sg17
g18
sg19
g18
sg20
S'/usr/share/fonts/liberation-fonts/LiberationSerif-BoldItalic.ttf'
p63
sg22
g23
sbag7
(g8
g9
NtRp64
(dp65
g12
g18
sg14
S'Droid Sans Thai'
p66
sg16
I400
sg17
g18
sg19
g18
sg20
S'/usr/share/fonts/droid/DroidSansThai.ttf'
p67
sg22
g23
sbag7
(g8
g9
NtRp68
(dp69
g12
g13
sg14
S'DejaVu Serif Condensed'
p70
sg16
I700
sg17
S'condensed'
p71
sg19
g18
sg20
S'/usr/share/fonts/dejavu/DejaVuSerifCondensed-BoldItalic.ttf'
p72
sg22
g23
sbag7
(g8
g9
NtRp73
(dp74
g12
g18
sg14
S'Serto Batnan'
p75
sg16
I700
sg17
g18
sg19
g18
sg20
S'/usr/share/fonts/OTF/SyrCOMBatnanBold.otf'
p76
sg22
g23
sbag7
(g8
g9
NtRp77
(dp78
g12
g18
sg14
S'Serto Batnan'
p79
sg16
I400
sg17
g18
sg19
g18
sg20
S'/usr/share/fonts/OTF/SyrCOMBatnan.otf'
p80
sg22
g23
sbag7
(g8
g9
NtRp81
(dp82
g12
g18
sg14
S'Mathematica3'
p83
sg16
I700
sg17
g18
sg19
g18
sg20
S'/usr/share/fonts/mathematica-fonts/Mathematica3b.ttf'
p84
sg22
g23
sbag7
(g8
g9
NtRp85
(dp86
g12
g18
sg14
S'STIXGeneral'
p87
sg16
I400
sg17
g18
sg19
g18
sg20
S'/usr/share/fonts/stix-fonts/STIXGeneral.otf'
p88
sg22
g23
sbag7
(g8
g9
NtRp89
(dp90
g12
g18
sg14
S'STIXNonUnicode'
p91
sg16
I400
sg17
g18
sg19
g18
sg20
S'/usr/share/fonts/stix-fonts/STIXNonUni.otf'
p92
sg22
g23
sbag7
(g8
g9
NtRp93
(dp94
g12
g18
sg14
S'Lohit Punjabi'
p95
sg16
I400
sg17
g18
sg19
g18
sg20
S'/usr/share/fonts/indic/lohit_pa.ttf'
p96
sg22
g23
sbag7
(g8
g9
NtRp97
(dp98
g12
g18
sg14
S'Lateef'
p99
sg16
I400
sg17
g18
sg19
g18
sg20
S'/usr/share/fonts/sil-arabicfonts/LateefRegOT.ttf'
p100
sg22
g23
sbag7
(g8
g9
NtRp101
(dp102
g12
S'oblique'
p103
sg14
S'Bitstream Vera Sans Mono'
p104
sg16
I700
sg17
g18
sg19
g18
sg20
S'/usr/share/fonts/ttf-bitstream-vera/VeraMoBI.ttf'
p105
sg22
g23
sbag7
(g8
g9
NtRp106
(dp107
g12
g18
sg14
S'Bitstream Vera Serif'
p108
sg16
I700
sg17
g18
sg19
g18
sg20
S'/usr/share/fonts/ttf-bitstream-vera/VeraSeBd.ttf'
p109
sg22
g23
sbag7
(g8
g9
NtRp110
(dp111
g12
g18
sg14
S'Luxi Sans'
p112
sg16
I700
sg17
g18
sg19
g18
sg20
S'/usr/share/fonts/TTF/luxisb.ttf'
p113
sg22
g23
sbag7
(g8
g9
NtRp114
(dp115
g12
g18
sg14
S'STIXNonUnicode'
p116
sg16
I700
sg17
g18
sg19
g18
sg20
S'/usr/share/fonts/stix-fonts/STIXNonUniBol.otf'
p117
sg22
g23
sbag7
(g8
g9
NtRp118
(dp119
g12
g13
sg14
S'Trebuchet MS'
p120
sg16
I700
sg17
g18
sg19
g18
sg20
S'/usr/share/fonts/corefonts/trebucbi.ttf'
p121
sg22
g23
sbag7
(g8
g9
NtRp122
(dp123
g12
g18
sg14
S'Lohit Bengali'
p124
sg16
I400
sg17
g18
sg19
g18
sg20
S'/usr/share/fonts/indic/lohit_bn.ttf'
p125
sg22
g23
sbag7
(g8
g9
NtRp126
(dp127
g12
g18
sg14
S'Mathematica7Mono'
p128
sg16
I700
sg17
g18
sg19
g18
sg20
S'/usr/share/fonts/mathematica-fonts/Mathematica7mb.ttf'
p129
sg22
g23
sbag7
(g8
g9
NtRp130
(dp131
g12
g18
sg14
S'DejaVu Sans Mono'
p132
sg16
I700
sg17
g18
sg19
g18
sg20
S'/usr/share/fonts/dejavu/DejaVuSansMono-Bold.ttf'
p133
sg22
g23
sbag7
(g8
g9
NtRp134
(dp135
g12
g18
sg14
S'Georgia'
p136
sg16
I700
sg17
g18
sg19
g18
sg20
S'/usr/share/fonts/corefonts/georgiab.ttf'
p137
sg22
g23
sbag7
(g8
g9
NtRp138
(dp139
g12
g18
sg14
S'STIXGeneral'
p140
sg16
I700
sg17
g18
sg19
g18
sg20
S'/usr/share/fonts/stix-fonts/STIXGeneralBol.otf'
p141
sg22
g23
sbag7
(g8
g9
NtRp142
(dp143
g12
g18
sg14
S'STIXIntegralsD'
p144
sg16
I700
sg17
g18
sg19
g18
sg20
S'/usr/share/fonts/stix-fonts/STIXIntDBol.otf'
p145
sg22
g23
sbag7
(g8
g9
NtRp146
(dp147
g12
g13
sg14
S'Liberation Sans'
p148
sg16
I400
sg17
g18
sg19
g18
sg20
S'/usr/share/fonts/liberation-fonts/LiberationSans-Italic.ttf'
p149
sg22
g23
sbag7
(g8
g9
NtRp150
(dp151
g12
g18
sg14
S'Kochi Gothic'
p152
sg16
I400
sg17
g18
sg19
g18
sg20
S'/usr/share/fonts/kochi-substitute/kochi-gothic-subst.ttf'
p153
sg22
g23
sbag7
(g8
g9
NtRp154
(dp155
g12
g18
sg14
S'Avdira'
p156
sg16
I700
sg17
g18
sg19
g18
sg20
S'/usr/share/fonts/ancient-fonts/Avdira_B.otf'
p157
sg22
g23
sbag7
(g8
g9
NtRp158
(dp159
g12
g18
sg14
S'Alexander'
p160
sg16
I400
sg17
g18
sg19
g18
sg20
S'/usr/share/fonts/ancient-fonts/Alexander.otf'
p161
sg22
g23
sbag7
(g8
g9
NtRp162
(dp163
g12
g18
sg14
S'STIXSizeFourSym'
p164
sg16
I400
sg17
g18
sg19
g18
sg20
S'/usr/share/fonts/stix-fonts/STIXSizFourSymReg.otf'
p165
sg22
g23
sbag7
(g8
g9
NtRp166
(dp167
g12
g18
sg14
S'STIXSizeThreeSym'
p168
sg16
I400
sg17
g18
sg19
g18
sg20
S'/usr/share/fonts/stix-fonts/STIXSizThreeSymReg.otf'
p169
sg22
g23
sbag7
(g8
g9
NtRp170
(dp171
g12
g18
sg14
S'Migu 1M'
p172
sg16
I700
sg17
g18
sg19
g18
sg20
S'/usr/share/fonts/mix-mplus-ipa/migu-1m-bold.ttf'
p173
sg22
g23
sbag7
(g8
g9
NtRp174
(dp175
g12
g18
sg14
S'Mathematica7Mono'
p176
sg16
I400
sg17
g18
sg19
g18
sg20
S'/usr/share/fonts/mathematica-fonts/Mathematica7m.ttf'
p177
sg22
g23
sbag7
(g8
g9
NtRp178
(dp179
g12
g18
sg14
S'Migu 1C'
p180
sg16
I700
sg17
g18
sg19
g18
sg20
S'/usr/share/fonts/mix-mplus-ipa/migu-1c-bold.ttf'
p181
sg22
g23
sbag7
(g8
g9
NtRp182
(dp183
g12
g18
sg14
S'Charis SIL'
p184
sg16
I400
sg17
g18
sg19
g18
sg20
S'/usr/share/fonts/sil-charis/CharisSIL-R.ttf'
p185
sg22
g23
sbag7
(g8
g9
NtRp186
(dp187
g12
g18
sg14
S'Mathematica5Mono'
p188
sg16
I700
sg17
g18
sg19
g18
sg20
S'/usr/share/fonts/mathematica-fonts/Mathematica5mb.ttf'
p189
sg22
g23
sbag7
(g8
g9
NtRp190
(dp191
g12
g18
sg14
S'Lohit Nepali'
p192
sg16
I400
sg17
g18
sg19
g18
sg20
S'/usr/share/fonts/indic/lohit_ne.ttf'
p193
sg22
g23
sbag7
(g8
g9
NtRp194
(dp195
g12
g18
sg14
S'Padauk Book'
p196
sg16
I700
sg17
g18
sg19
g18
sg20
S'/usr/share/fonts/sil-padauk/Padauk-bookbold.ttf'
p197
sg22
g23
sbag7
(g8
g9
NtRp198
(dp199
g12
g18
sg14
S'Estrangelo Nisibin Outline'
p200
sg16
I400
sg17
g18
sg19
g18
sg20
S'/usr/share/fonts/OTF/SyrCOMNisibinOutline.otf'
p201
sg22
g23
sbag7
(g8
g9
NtRp202
(dp203
g12
g18
sg14
S'Mathematica2'
p204
sg16
I700
sg17
g18
sg19
g18
sg20
S'/usr/share/fonts/mathematica-fonts/Mathematica2b.ttf'
p205
sg22
g23
sbag7
(g8
g9
NtRp206
(dp207
g12
g18
sg14
S'Mathematica2Mono'
p208
sg16
I400
sg17
g18
sg19
g18
sg20
S'/usr/share/fonts/mathematica-fonts/Mathematica2m.ttf'
p209
sg22
g23
sbag7
(g8
g9
NtRp210
(dp211
g12
g18
sg14
S'DejaVu Sans Condensed'
p212
sg16
I400
sg17
g71
sg19
g18
sg20
S'/usr/share/fonts/dejavu/DejaVuSansCondensed.ttf'
p213
sg22
g23
sbag7
(g8
g9
NtRp214
(dp215
g12
g18
sg14
S'Luxi Mono'
p216
sg16
I700
sg17
g18
sg19
g18
sg20
S'/usr/share/fonts/TTF/luximb.ttf'
p217
sg22
g23
sbag7
(g8
g9
NtRp218
(dp219
g12
g18
sg14
S'Liberation Mono'
p220
sg16
I400
sg17
g18
sg19
g18
sg20
S'/usr/share/fonts/liberation-fonts/LiberationMono-Regular.ttf'
p221
sg22
g23
sbag7
(g8
g9
NtRp222
(dp223
g12
g18
sg14
S'Mathematica6'
p224
sg16
I400
sg17
g18
sg19
g18
sg20
S'/usr/share/fonts/mathematica-fonts/Mathematica6.ttf'
p225
sg22
g23
sbag7
(g8
g9
NtRp226
(dp227
g12
g18
sg14
S'Bitstream Vera Sans Mono'
p228
sg16
I700
sg17
g18
sg19
g18
sg20
S'/usr/share/fonts/mathematica-fonts/VeraMoBd.ttf'
p229
sg22
g23
sbag7
(g8
g9
NtRp230
(dp231
g12
g103
sg14
S'Luxi Serif'
p232
sg16
I400
sg17
g18
sg19
g18
sg20
S'/usr/share/fonts/TTF/luxirri.ttf'
p233
sg22
g23
sbag7
(g8
g9
NtRp234
(dp235
g12
g18
sg14
S'Bitstream Vera Sans'
p236
sg16
I700
sg17
g18
sg19
g18
sg20
S'/usr/share/fonts/ttf-bitstream-vera/VeraBd.ttf'
p237
sg22
g23
sbag7
(g8
g9
NtRp238
(dp239
g12
g13
sg14
S'Cardo'
p240
sg16
I400
sg17
g18
sg19
g18
sg20
S'/usr/share/fonts/cardo/Cardoi99.ttf'
p241
sg22
g23
sbag7
(g8
g9
NtRp242
(dp243
g12
g18
sg14
S'Estrangelo Quenneshrin'
p244
sg16
I400
sg17
g18
sg19
g18
sg20
S'/usr/share/fonts/OTF/SyrCOMQenNeshrin.otf'
p245
sg22
g23
sbag7
(g8
g9
NtRp246
(dp247
g12
g13
sg14
S'Junicode'
p248
sg16
I700
sg17
g18
sg19
g18
sg20
S'/home/amon/.fonts/Junicode-BoldItalic.ttf'
p249
sg22
g23
sbag7
(g8
g9
NtRp250
(dp251
g12
g18
sg14
S'Mathematica5'
p252
sg16
I700
sg17
g18
sg19
g18
sg20
S'/usr/share/fonts/mathematica-fonts/Mathematica5b.ttf'
p253
sg22
g23
sbag7
(g8
g9
NtRp254
(dp255
g12
g103
sg14
S'DejaVu Sans Condensed'
p256
sg16
I400
sg17
g71
sg19
g18
sg20
S'/usr/share/fonts/dejavu/DejaVuSansCondensed-Oblique.ttf'
p257
sg22
g23
sbag7
(g8
g9
NtRp258
(dp259
g12
g18
sg14
S'Migu 2M'
p260
sg16
I400
sg17
g18
sg19
g18
sg20
S'/usr/share/fonts/mix-mplus-ipa/migu-2m-regular.ttf'
p261
sg22
g23
sbag7
(g8
g9
NtRp262
(dp263
g12
g18
sg14
S'Roboto'
p264
sg16
I200
sg17
g18
sg19
g18
sg20
S'/usr/share/fonts/roboto/Roboto-Light.ttf'
p265
sg22
g23
sbag7
(g8
g9
NtRp266
(dp267
g12
g18
sg14
S'Estrangelo Talada'
p268
sg16
I400
sg17
g18
sg19
g18
sg20
S'/usr/share/fonts/OTF/SyrCOMTalada.otf'
p269
sg22
g23
sbag7
(g8
g9
NtRp270
(dp271
g12
g18
sg14
S'Trebuchet MS'
p272
sg16
I700
sg17
g18
sg19
g18
sg20
S'/usr/share/fonts/corefonts/trebucbd.ttf'
p273
sg22
g23
sbag7
(g8
g9
NtRp274
(dp275
g12
g18
sg14
S'Serto Kharput'
p276
sg16
I400
sg17
g18
sg19
g18
sg20
S'/usr/share/fonts/OTF/SyrCOMKharput.otf'
p277
sg22
g23
sbag7
(g8
g9
NtRp278
(dp279
g12
g18
sg14
S'Goha-Tibeb Zemen'
p280
sg16
I400
sg17
g18
sg19
g18
sg20
S'/usr/share/fonts/OTF/GohaTibebZemen.otf'
p281
sg22
g23
sbag7
(g8
g9
NtRp282
(dp283
g12
g18
sg14
S'Roboto'
p284
sg16
I400
sg17
g18
sg19
g18
sg20
S'/usr/share/fonts/roboto/Roboto-Regular.ttf'
p285
sg22
g23
sbag7
(g8
g9
NtRp286
(dp287
g12
g13
sg14
S'Liberation Serif'
p288
sg16
I400
sg17
g18
sg19
g18
sg20
S'/usr/share/fonts/liberation-fonts/LiberationSerif-Italic.ttf'
p289
sg22
g23
sbag7
(g8
g9
NtRp290
(dp291
g12
g18
sg14
S'Sazanami Gothic'
p292
sg16
I400
sg17
g18
sg19
g18
sg20
S'/usr/share/fonts/sazanami/sazanami-gothic.ttf'
p293
sg22
g23
sbag7
(g8
g9
NtRp294
(dp295
g12
g18
sg14
S'Aroania'
p296
sg16
I400
sg17
g18
sg19
g18
sg20
S'/usr/share/fonts/ancient-fonts/Aroania_R.otf'
p297
sg22
g23
sbag7
(g8
g9
NtRp298
(dp299
g12
g13
sg14
S'Liberation Sans'
p300
sg16
I700
sg17
g18
sg19
g18
sg20
S'/usr/share/fonts/liberation-fonts/LiberationSans-BoldItalic.ttf'
p301
sg22
g23
sbag7
(g8
g9
NtRp302
(dp303
g12
g18
sg14
S'Roboto Condensed'
p304
sg16
I400
sg17
g71
sg19
g18
sg20
S'/usr/share/fonts/roboto/RobotoCondensed-Regular.ttf'
p305
sg22
g23
sbag7
(g8
g9
NtRp306
(dp307
g12
g18
sg14
S'Estrangelo Antioch'
p308
sg16
I400
sg17
g18
sg19
g18
sg20
S'/usr/share/fonts/OTF/SyrCOMAntioch.otf'
p309
sg22
g23
sbag7
(g8
g9
NtRp310
(dp311
g12
g18
sg14
S'STIXIntegralsD'
p312
sg16
I400
sg17
g18
sg19
g18
sg20
S'/usr/share/fonts/stix-fonts/STIXIntDReg.otf'
p313
sg22
g23
sbag7
(g8
g9
NtRp314
(dp315
g12
g18
sg14
S'Georgia'
p316
sg16
I400
sg17
g18
sg19
g18
sg20
S'/usr/share/fonts/corefonts/georgia.ttf'
p317
sg22
g23
sbag7
(g8
g9
NtRp318
(dp319
g12
g18
sg14
S'STIXIntegralsUp'
p320
sg16
I400
sg17
g18
sg19
g18
sg20
S'/usr/share/fonts/stix-fonts/STIXIntUpReg.otf'
p321
sg22
g23
sbag7
(g8
g9
NtRp322
(dp323
g12
g13
sg14
S'Courier New'
p324
sg16
I400
sg17
g18
sg19
g18
sg20
S'/usr/share/fonts/corefonts/couri.ttf'
p325
sg22
g23
sbag7
(g8
g9
NtRp326
(dp327
g12
g18
sg14
S'DejaVu Serif Condensed'
p328
sg16
I400
sg17
g71
sg19
g18
sg20
S'/usr/share/fonts/dejavu/DejaVuSerifCondensed.ttf'
p329
sg22
g23
sbag7
(g8
g9
NtRp330
(dp331
g12
g18
sg14
S'STIXIntegralsUp'
p332
sg16
I700
sg17
g18
sg19
g18
sg20
S'/usr/share/fonts/stix-fonts/STIXIntUpBol.otf'
p333
sg22
g23
sbag7
(g8
g9
NtRp334
(dp335
g12
g18
sg14
S'Lohit Kashmiri'
p336
sg16
I400
sg17
g18
sg19
g18
sg20
S'/usr/share/fonts/indic/lohit_ks.ttf'
p337
sg22
g23
sbag7
(g8
g9
NtRp338
(dp339
g12
g18
sg14
S'Lohit Sindhi'
p340
sg16
I400
sg17
g18
sg19
g18
sg20
S'/usr/share/fonts/indic/lohit_sd.ttf'
p341
sg22
g23
sbag7
(g8
g9
NtRp342
(dp343
g12
g18
sg14
S'Lohit Gujarati'
p344
sg16
I400
sg17
g18
sg19
g18
sg20
S'/usr/share/fonts/indic/lohit_gu.ttf'
p345
sg22
g23
sbag7
(g8
g9
NtRp346
(dp347
g12
g18
sg14
S'Cardo'
p348
sg16
I400
sg17
g18
sg19
g18
sg20
S'/usr/share/fonts/cardo/Cardo104s.ttf'
p349
sg22
g23
sbag7
(g8
g9
NtRp350
(dp351
g12
g18
sg14
S'Droid Sans'
p352
sg16
I700
sg17
g18
sg19
g18
sg20
S'/usr/share/fonts/droid/DroidSans-Bold.ttf'
p353
sg22
g23
sbag7
(g8
g9
NtRp354
(dp355
g12
g13
sg14
S'Georgia'
p356
sg16
I700
sg17
g18
sg19
g18
sg20
S'/usr/share/fonts/corefonts/georgiaz.ttf'
p357
sg22
g23
sbag7
(g8
g9
NtRp358
(dp359
g12
g18
sg14
S'Anaktoria'
p360
sg16
I400
sg17
g18
sg19
g18
sg20
S'/usr/share/fonts/ancient-fonts/Anaktoria.otf'
p361
sg22
g23
sbag7
(g8
g9
NtRp362
(dp363
g12
g18
sg14
S'Verdana'
p364
sg16
I700
sg17
g18
sg19
g18
sg20
S'/usr/share/fonts/corefonts/verdanab.ttf'
p365
sg22
g23
sbag7
(g8
g9
NtRp366
(dp367
g12
g18
sg14
S'Liberation Mono'
p368
sg16
I700
sg17
g18
sg19
g18
sg20
S'/usr/share/fonts/liberation-fonts/LiberationMono-Bold.ttf'
p369
sg22
g23
sbag7
(g8
g9
NtRp370
(dp371
g12
g18
sg14
S'Migu 1C'
p372
sg16
I400
sg17
g18
sg19
g18
sg20
S'/usr/share/fonts/mix-mplus-ipa/migu-1c-regular.ttf'
p373
sg22
g23
sbag7
(g8
g9
NtRp374
(dp375
g12
g18
sg14
S'Anonymous Pro'
p376
sg16
I400
sg17
g18
sg19
g18
sg20
S'/usr/share/fonts/anonymous-pro/Anonymous Pro.ttf'
p377
sg22
g23
sbag7
(g8
g9
NtRp378
(dp379
g12
g18
sg14
S'Anonymous Pro'
p380
sg16
I700
sg17
g18
sg19
g18
sg20
S'/usr/share/fonts/anonymous-pro/Anonymous Pro B.ttf'
p381
sg22
g23
sbag7
(g8
g9
NtRp382
(dp383
g12
g13
sg14
S'Roboto Condensed'
p384
sg16
I200
sg17
g71
sg19
g18
sg20
S'/usr/share/fonts/roboto/RobotoCondensed-LightItalic.ttf'
p385
sg22
g23
sbag7
(g8
g9
NtRp386
(dp387
g12
g18
sg14
S'Bitstream Vera Sans Mono'
p388
sg16
I400
sg17
g18
sg19
g18
sg20
S'/usr/share/fonts/mathematica-fonts/VeraMono.ttf'
p389
sg22
g23
sbag7
(g8
g9
NtRp390
(dp391
g12
g18
sg14
S'Serto Urhoy'
p392
sg16
I400
sg17
g18
sg19
g18
sg20
S'/usr/share/fonts/OTF/SyrCOMUrhoy.otf'
p393
sg22
g23
sbag7
(g8
g9
NtRp394
(dp395
g12
g18
sg14
S'Mona'
p396
sg16
I400
sg17
g18
sg19
g18
sg20
S'/usr/share/fonts/monafont/mona.ttf'
p397
sg22
g23
sbag7
(g8
g9
NtRp398
(dp399
g12
g18
sg14
S'Ezra SIL SR'
p400
sg16
I400
sg17
g18
sg19
g18
sg20
S'/usr/share/fonts/sil-ezra/SILEOTSR.ttf'
p401
sg22
g23
sbag7
(g8
g9
NtRp402
(dp403
g12
g18
sg14
S'Clockopia'
p404
sg16
I400
sg17
g18
sg19
g18
sg20
S'/usr/share/fonts/droid/Clockopia.ttf'
p405
sg22
g23
sbag7
(g8
g9
NtRp406
(dp407
g12
g18
sg14
S'Bitstream Vera Sans'
p408
sg16
I400
sg17
g18
sg19
g18
sg20
S'/usr/share/fonts/ttf-bitstream-vera/Vera.ttf'
p409
sg22
g23
sbag7
(g8
g9
NtRp410
(dp411
g12
g18
sg14
S'Serto Jerusalem'
p412
sg16
I700
sg17
g18
sg19
g18
sg20
S'/usr/share/fonts/OTF/SyrCOMJerusalemBold.otf'
p413
sg22
g23
sbag7
(g8
g9
NtRp414
(dp415
g12
g18
sg14
S'MigMix 1P'
p416
sg16
I400
sg17
g18
sg19
g18
sg20
S'/usr/share/fonts/mix-mplus-ipa/migmix-1p-regular.ttf'
p417
sg22
g23
sbag7
(g8
g9
NtRp418
(dp419
g12
g18
sg14
S'DejaVu Serif'
p420
sg16
I700
sg17
g18
sg19
g18
sg20
S'/usr/share/fonts/dejavu/DejaVuSerif-Bold.ttf'
p421
sg22
g23
sbag7
(g8
g9
NtRp422
(dp423
g12
g13
sg14
S'Roboto'
p424
sg16
I500
sg17
g18
sg19
g18
sg20
S'/usr/share/fonts/roboto/Roboto-MediumItalic.ttf'
p425
sg22
g23
sbag7
(g8
g9
NtRp426
(dp427
g12
g13
sg14
S'DejaVu Serif Condensed'
p428
sg16
I400
sg17
g71
sg19
g18
sg20
S'/usr/share/fonts/dejavu/DejaVuSerifCondensed-Italic.ttf'
p429
sg22
g23
sbag7
(g8
g9
NtRp430
(dp431
g12
g18
sg14
S'Aegyptus'
p432
sg16
I400
sg17
g18
sg19
g18
sg20
S'/usr/share/fonts/ancient-fonts/Aegyptus313.ttf'
p433
sg22
g23
sbag7
(g8
g9
NtRp434
(dp435
g12
g18
sg14
S'Arial'
p436
sg16
I400
sg17
g18
sg19
g18
sg20
S'/usr/share/fonts/corefonts/arial.ttf'
p437
sg22
g23
sbag7
(g8
g9
NtRp438
(dp439
g12
g18
sg14
S'Lohit Konkani'
p440
sg16
I400
sg17
g18
sg19
g18
sg20
S'/usr/share/fonts/indic/lohit_kok.ttf'
p441
sg22
g23
sbag7
(g8
g9
NtRp442
(dp443
g12
g103
sg14
S'Bitstream Vera Sans Mono'
p444
sg16
I400
sg17
g18
sg19
g18
sg20
S'/usr/share/fonts/ttf-bitstream-vera/VeraMoIt.ttf'
p445
sg22
g23
sbag7
(g8
g9
NtRp446
(dp447
g12
g18
sg14
S'Scheherazade'
p448
sg16
I400
sg17
g18
sg19
g18
sg20
S'/usr/share/fonts/sil-arabicfonts/ScheherazadeRegOT.ttf'
p449
sg22
g23
sbag7
(g8
g9
NtRp450
(dp451
g12
g18
sg14
S'Serto Jerusalem'
p452
sg16
I400
sg17
g18
sg19
g18
sg20
S'/usr/share/fonts/OTF/SyrCOMJerusalem.otf'
p453
sg22
g23
sbag7
(g8
g9
NtRp454
(dp455
g12
g18
sg14
S'Mathematica6'
p456
sg16
I700
sg17
g18
sg19
g18
sg20
S'/usr/share/fonts/mathematica-fonts/Mathematica6b.ttf'
p457
sg22
g23
sbag7
(g8
g9
NtRp458
(dp459
g12
g18
sg14
S'Bitstream Vera Serif'
p460
sg16
I400
sg17
g18
sg19
g18
sg20
S'/usr/share/fonts/mathematica-fonts/VeraSe.ttf'
p461
sg22
g23
sbag7
(g8
g9
NtRp462
(dp463
g12
g18
sg14
S'Ahem'
p464
sg16
I400
sg17
g18
sg19
g18
sg20
S'/usr/share/fonts/droid/Ahem.ttf'
p465
sg22
g23
sbag7
(g8
g9
NtRp466
(dp467
g12
g13
sg14
S'Times New Roman'
p468
sg16
I500
sg17
g18
sg19
g18
sg20
S'/usr/share/fonts/corefonts/timesi.ttf'
p469
sg22
g23
sbag7
(g8
g9
NtRp470
(dp471
g12
g18
sg14
S'Ricty'
p472
sg16
I400
sg17
g18
sg19
g18
sg20
S'/usr/share/fonts/ricty/Ricty-Regular.ttf'
p473
sg22
g23
sbag7
(g8
g9
NtRp474
(dp475
g12
g103
sg14
S'DejaVu Sans'
p476
sg16
I400
sg17
g18
sg19
g18
sg20
S'/usr/share/fonts/dejavu/DejaVuSans-Oblique.ttf'
p477
sg22
g23
sbag7
(g8
g9
NtRp478
(dp479
g12
g18
sg14
S'STIXIntegralsUpSm'
p480
sg16
I400
sg17
g18
sg19
g18
sg20
S'/usr/share/fonts/stix-fonts/STIXIntUpSmReg.otf'
p481
sg22
g23
sbag7
(g8
g9
NtRp482
(dp483
g12
g18
sg14
S'Analecta'
p484
sg16
I400
sg17
g18
sg19
g18
sg20
S'/usr/share/fonts/ancient-fonts/Analecta306.otf'
p485
sg22
g23
sbag7
(g8
g9
NtRp486
(dp487
g12
g18
sg14
S'Estrangelo TurAbdin'
p488
sg16
I400
sg17
g18
sg19
g18
sg20
S'/usr/share/fonts/OTF/SyrCOMTurAbdin.otf'
p489
sg22
g23
sbag7
(g8
g9
NtRp490
(dp491
g12
g18
sg14
S'Sazanami Mincho'
p492
sg16
I400
sg17
g18
sg19
g18
sg20
S'/usr/share/fonts/sazanami/sazanami-mincho.ttf'
p493
sg22
g23
sbag7
(g8
g9
NtRp494
(dp495
g12
g13
sg14
S'Georgia'
p496
sg16
I400
sg17
g18
sg19
g18
sg20
S'/usr/share/fonts/corefonts/georgiai.ttf'
p497
sg22
g23
sbag7
(g8
g9
NtRp498
(dp499
g12
g18
sg14
S'Luxi Mono'
p500
sg16
I400
sg17
g18
sg19
g18
sg20
S'/usr/share/fonts/TTF/luximr.ttf'
p501
sg22
g23
sbag7
(g8
g9
NtRp502
(dp503
g12
g18
sg14
S'Comic Sans MS'
p504
sg16
I700
sg17
g18
sg19
g18
sg20
S'/usr/share/fonts/corefonts/comicbd.ttf'
p505
sg22
g23
sbag7
(g8
g9
NtRp506
(dp507
g12
g18
sg14
S'Mathematica1Mono'
p508
sg16
I400
sg17
g18
sg19
g18
sg20
S'/usr/share/fonts/mathematica-fonts/Mathematica1m.ttf'
p509
sg22
g23
sbag7
(g8
g9
NtRp510
(dp511
g12
g18
sg14
S'MigMix 1M'
p512
sg16
I400
sg17
g18
sg19
g18
sg20
S'/usr/share/fonts/mix-mplus-ipa/migmix-1m-regular.ttf'
p513
sg22
g23
sbag7
(g8
g9
NtRp514
(dp515
g12
g18
sg14
S'Roboto'
p516
sg16
I900
sg17
g18
sg19
g18
sg20
S'/usr/share/fonts/roboto/Roboto-Black.ttf'
p517
sg22
g23
sbag7
(g8
g9
NtRp518
(dp519
g12
g18
sg14
S'Estrangelo Midyat'
p520
sg16
I400
sg17
g18
sg19
g18
sg20
S'/usr/share/fonts/OTF/SyrCOMMidyat.otf'
p521
sg22
g23
sbag7
(g8
g9
NtRp522
(dp523
g12
g18
sg14
S'Monaco'
p524
sg16
I400
sg17
g18
sg19
g18
sg20
S'/usr/share/fonts/monaco/Monaco_Linux.ttf'
p525
sg22
g23
sbag7
(g8
g9
NtRp526
(dp527
g12
g18
sg14
S'Droid Sans Mono'
p528
sg16
I400
sg17
g18
sg19
g18
sg20
S'/usr/share/fonts/droid/DroidSansMono.ttf'
p529
sg22
g23
sbag7
(g8
g9
NtRp530
(dp531
g12
g18
sg14
S'Cardo'
p532
sg16
I700
sg17
g18
sg19
g18
sg20
S'/usr/share/fonts/cardo/Cardob101.ttf'
p533
sg22
g23
sbag7
(g8
g9
NtRp534
(dp535
g12
g13
sg14
S'Anonymous Pro'
p536
sg16
I700
sg17
g18
sg19
g18
sg20
S'/usr/share/fonts/anonymous-pro/Anonymous Pro BI.ttf'
p537
sg22
g23
sbag7
(g8
g9
NtRp538
(dp539
g12
g18
sg14
S'MigMix 1M'
p540
sg16
I700
sg17
g18
sg19
g18
sg20
S'/usr/share/fonts/mix-mplus-ipa/migmix-1m-bold.ttf'
p541
sg22
g23
sbag7
(g8
g9
NtRp542
(dp543
g12
g13
sg14
S'STIXGeneral'
p544
sg16
I400
sg17
g18
sg19
g18
sg20
S'/usr/share/fonts/stix-fonts/STIXGeneralItalic.otf'
p545
sg22
g23
sbag7
(g8
g9
NtRp546
(dp547
g12
g18
sg14
S'Lohit Marathi'
p548
sg16
I400
sg17
g18
sg19
g18
sg20
S'/usr/share/fonts/indic/lohit_mr.ttf'
p549
sg22
g23
sbag7
(g8
g9
NtRp550
(dp551
g12
g18
sg14
S'Roboto'
p552
sg16
I700
sg17
g18
sg19
g18
sg20
S'/usr/share/fonts/roboto/Roboto-Bold.ttf'
p553
sg22
g23
sbag7
(g8
g9
NtRp554
(dp555
g12
g18
sg14
S'MigMix 2P'
p556
sg16
I400
sg17
g18
sg19
g18
sg20
S'/usr/share/fonts/mix-mplus-ipa/migmix-2p-regular.ttf'
p557
sg22
g23
sbag7
(g8
g9
NtRp558
(dp559
g12
g13
sg14
S'DejaVu Serif'
p560
sg16
I400
sg17
g18
sg19
g18
sg20
S'/usr/share/fonts/dejavu/DejaVuSerif-Italic.ttf'
p561
sg22
g23
sbag7
(g8
g9
NtRp562
(dp563
g12
g18
sg14
S'Roboto Condensed'
p564
sg16
I700
sg17
g71
sg19
g18
sg20
S'/usr/share/fonts/roboto/RobotoCondensed-Bold.ttf'
p565
sg22
g23
sbag7
(g8
g9
NtRp566
(dp567
g12
g18
sg14
S'STIXVariants'
p568
sg16
I400
sg17
g18
sg19
g18
sg20
S'/usr/share/fonts/stix-fonts/STIXVar.otf'
p569
sg22
g23
sbag7
(g8
g9
NtRp570
(dp571
g12
g103
sg14
S'DejaVu Sans Mono'
p572
sg16
I700
sg17
g18
sg19
g18
sg20
S'/usr/share/fonts/dejavu/DejaVuSansMono-BoldOblique.ttf'
p573
sg22
g23
sbag7
(g8
g9
NtRp574
(dp575
g12
g13
sg14
S'Roboto'
p576
sg16
I900
sg17
g18
sg19
g18
sg20
S'/usr/share/fonts/roboto/Roboto-BlackItalic.ttf'
p577
sg22
g23
sbag7
(g8
g9
NtRp578
(dp579
g12
g18
sg14
S'STIXIntegralsSm'
p580
sg16
I400
sg17
g18
sg19
g18
sg20
S'/usr/share/fonts/stix-fonts/STIXIntSmReg.otf'
p581
sg22
g23
sbag7
(g8
g9
NtRp582
(dp583
g12
g18
sg14
S'Lohit Oriya'
p584
sg16
I400
sg17
g18
sg19
g18
sg20
S'/usr/share/fonts/indic/lohit_or.ttf'
p585
sg22
g23
sbag7
(g8
g9
NtRp586
(dp587
g12
g13
sg14
S'Charis SIL'
p588
sg16
I700
sg17
g18
sg19
g18
sg20
S'/usr/share/fonts/sil-charis/CharisSIL-BI.ttf'
p589
sg22
g23
sbag7
(g8
g9
NtRp590
(dp591
g12
g18
sg14
S'Maya'
p592
sg16
I400
sg17
g18
sg19
g18
sg20
S'/usr/share/fonts/ancient-fonts/Maya106.ttf'
p593
sg22
g23
sbag7
(g8
g9
NtRp594
(dp595
g12
g18
sg14
S'Baekmuk Headline'
p596
sg16
I400
sg17
g18
sg19
g18
sg20
S'/usr/share/fonts/baekmuk-fonts/hline.ttf'
p597
sg22
g23
sbag7
(g8
g9
NtRp598
(dp599
g12
g18
sg14
S'Mathematica4'
p600
sg16
I400
sg17
g18
sg19
g18
sg20
S'/usr/share/fonts/mathematica-fonts/Mathematica4.ttf'
p601
sg22
g23
sbag7
(g8
g9
NtRp602
(dp603
g12
g18
sg14
S'Mathematica6Mono'
p604
sg16
I700
sg17
g18
sg19
g18
sg20
S'/usr/share/fonts/mathematica-fonts/Mathematica6mb.ttf'
p605
sg22
g23
sbag7
(g8
g9
NtRp606
(dp607
g12
g18
sg14
S'Courier New'
p608
sg16
I400
sg17
g18
sg19
g18
sg20
S'/usr/share/fonts/corefonts/cour.ttf'
p609
sg22
g23
sbag7
(g8
g9
NtRp610
(dp611
g12
g18
sg14
S'Lohit Tamil'
p612
sg16
I400
sg17
g18
sg19
g18
sg20
S'/usr/share/fonts/indic/lohit_ta.ttf'
p613
sg22
g23
sbag7
(g8
g9
NtRp614
(dp615
g12
g18
sg14
S'Mathematica4Mono'
p616
sg16
I700
sg17
g18
sg19
g18
sg20
S'/usr/share/fonts/mathematica-fonts/Mathematica4mb.ttf'
p617
sg22
g23
sbag7
(g8
g9
NtRp618
(dp619
g12
g18
sg14
S'Liberation Sans'
p620
sg16
I400
sg17
g18
sg19
g18
sg20
S'/usr/share/fonts/liberation-fonts/LiberationSans-Regular.ttf'
p621
sg22
g23
sbag7
(g8
g9
NtRp622
(dp623
g12
g13
sg14
S'Droid Serif'
p624
sg16
I700
sg17
g18
sg19
g18
sg20
S'/usr/share/fonts/droid/DroidSerif-BoldItalic.ttf'
p625
sg22
g23
sbag7
(g8
g9
NtRp626
(dp627
g12
g18
sg14
S'DejaVu Serif Condensed'
p628
sg16
I700
sg17
g71
sg19
g18
sg20
S'/usr/share/fonts/dejavu/DejaVuSerifCondensed-Bold.ttf'
p629
sg22
g23
sbag7
(g8
g9
NtRp630
(dp631
g12
g18
sg14
S'Andale Mono'
p632
sg16
I400
sg17
g18
sg19
g18
sg20
S'/usr/share/fonts/corefonts/andalemo.ttf'
p633
sg22
g23
sbag7
(g8
g9
NtRp634
(dp635
g12
g18
sg14
S'DejaVu Sans Mono'
p636
sg16
I400
sg17
g18
sg19
g18
sg20
S'/usr/share/fonts/dejavu/DejaVuSansMono.ttf'
p637
sg22
g23
sbag7
(g8
g9
NtRp638
(dp639
g12
g18
sg14
S'Lohit Telugu'
p640
sg16
I400
sg17
g18
sg19
g18
sg20
S'/usr/share/fonts/indic/lohit_te.ttf'
p641
sg22
g23
sbag7
(g8
g9
NtRp642
(dp643
g12
g13
sg14
S'Roboto'
p644
sg16
I400
sg17
g18
sg19
g18
sg20
S'/usr/share/fonts/roboto/Roboto-ThinItalic.ttf'
p645
sg22
g23
sbag7
(g8
g9
NtRp646
(dp647
g12
g18
sg14
S'Trebuchet MS'
p648
sg16
I400
sg17
g18
sg19
g18
sg20
S'/usr/share/fonts/corefonts/trebuc.ttf'
p649
sg22
g23
sbag7
(g8
g9
NtRp650
(dp651
g12
g18
sg14
S'Mathematica4'
p652
sg16
I700
sg17
g18
sg19
g18
sg20
S'/usr/share/fonts/mathematica-fonts/Mathematica4b.ttf'
p653
sg22
g23
sbag7
(g8
g9
NtRp654
(dp655
g12
g18
sg14
S'Migu 1P'
p656
sg16
I400
sg17
g18
sg19
g18
sg20
S'/usr/share/fonts/mix-mplus-ipa/migu-1p-regular.ttf'
p657
sg22
g23
sbag7
(g8
g9
NtRp658
(dp659
g12
g18
sg14
S'Migu 1P'
p660
sg16
I700
sg17
g18
sg19
g18
sg20
S'/usr/share/fonts/mix-mplus-ipa/migu-1p-bold.ttf'
p661
sg22
g23
sbag7
(g8
g9
NtRp662
(dp663
g12
g18
sg14
S'Gardiner'
p664
sg16
I400
sg17
g18
sg19
g18
sg20
S'/usr/share/fonts/ancient-fonts/Gardiner313.ttf'
p665
sg22
g23
sbag7
(g8
g9
NtRp666
(dp667
g12
g18
sg14
S'Luxi Sans'
p668
sg16
I400
sg17
g18
sg19
g18
sg20
S'/usr/share/fonts/TTF/luxisr.ttf'
p669
sg22
g23
sbag7
(g8
g9
NtRp670
(dp671
g12
g13
sg14
S'Roboto Condensed'
p672
sg16
I700
sg17
g71
sg19
g18
sg20
S'/usr/share/fonts/roboto/RobotoCondensed-BoldItalic.ttf'
p673
sg22
g23
sbag7
(g8
g9
NtRp674
(dp675
g12
g18
sg14
S'Ricty Discord'
p676
sg16
I700
sg17
g18
sg19
g18
sg20
S'/usr/share/fonts/ricty/RictyDiscord-Bold.ttf'
p677
sg22
g23
sbag7
(g8
g9
NtRp678
(dp679
g12
g103
sg14
S'Bitstream Vera Sans'
p680
sg16
I400
sg17
g18
sg19
g18
sg20
S'/usr/share/fonts/mathematica-fonts/VeraIt.ttf'
p681
sg22
g23
sbag7
(g8
g9
NtRp682
(dp683
g12
g18
sg14
S'Roboto'
p684
sg16
I400
sg17
g18
sg19
g18
sg20
S'/usr/share/fonts/roboto/Roboto-Thin.ttf'
p685
sg22
g23
sbag7
(g8
g9
NtRp686
(dp687
g12
g18
sg14
S'Aegean'
p688
sg16
I400
sg17
g18
sg19
g18
sg20
S'/usr/share/fonts/ancient-fonts/Aegean600.ttf'
p689
sg22
g23
sbag7
(g8
g9
NtRp690
(dp691
g12
g13
sg14
S'STIXNonUnicode'
p692
sg16
I400
sg17
g18
sg19
g18
sg20
S'/usr/share/fonts/stix-fonts/STIXNonUniIta.otf'
p693
sg22
g23
sbag7
(g8
g9
NtRp694
(dp695
g12
g18
sg14
S'Mathematica4Mono'
p696
sg16
I400
sg17
g18
sg19
g18
sg20
S'/usr/share/fonts/mathematica-fonts/Mathematica4m.ttf'
p697
sg22
g23
sbag7
(g8
g9
NtRp698
(dp699
g12
g18
sg14
S'Tibetan Machine Uni'
p700
sg16
I400
sg17
g18
sg19
g18
sg20
S'/usr/share/fonts/tibetan-machine-font/TibMachUni-1.901.ttf'
p701
sg22
g23
sbag7
(g8
g9
NtRp702
(dp703
g12
g18
sg14
S'Ezra SIL'
p704
sg16
I400
sg17
g18
sg19
g18
sg20
S'/usr/share/fonts/sil-ezra/SILEOT.ttf'
p705
sg22
g23
sbag7
(g8
g9
NtRp706
(dp707
g12
g13
sg14
S'Verdana'
p708
sg16
I400
sg17
g18
sg19
g18
sg20
S'/usr/share/fonts/corefonts/verdanai.ttf'
p709
sg22
g23
sbag7
(g8
g9
NtRp710
(dp711
g12
g103
sg14
S'Luxi Serif'
p712
sg16
I700
sg17
g18
sg19
g18
sg20
S'/usr/share/fonts/TTF/luxirbi.ttf'
p713
sg22
g23
sbag7
(g8
g9
NtRp714
(dp715
g12
g13
sg14
S'Avdira'
p716
sg16
I400
sg17
g18
sg19
g18
sg20
S'/usr/share/fonts/ancient-fonts/Avdira_I.otf'
p717
sg22
g23
sbag7
(g8
g9
NtRp718
(dp719
g12
g18
sg14
S'Liberation Serif'
p720
sg16
I700
sg17
g18
sg19
g18
sg20
S'/usr/share/fonts/liberation-fonts/LiberationSerif-Bold.ttf'
p721
sg22
g23
sbag7
(g8
g9
NtRp722
(dp723
g12
g18
sg14
S'Liberation Sans'
p724
sg16
I700
sg17
g18
sg19
g18
sg20
S'/usr/share/fonts/liberation-fonts/LiberationSans-Bold.ttf'
p725
sg22
g23
sbag7
(g8
g9
NtRp726
(dp727
g12
g18
sg14
S'Ricty Discord'
p728
sg16
I400
sg17
g18
sg19
g18
sg20
S'/usr/share/fonts/ricty/RictyDiscord-Regular.ttf'
p729
sg22
g23
sbag7
(g8
g9
NtRp730
(dp731
g12
g103
sg14
S'Bitstream Vera Sans'
p732
sg16
I700
sg17
g18
sg19
g18
sg20
S'/usr/share/fonts/mathematica-fonts/VeraBI.ttf'
p733
sg22
g23
sbag7
(g8
g9
NtRp734
(dp735
g12
g18
sg14
S'STIXIntegralsUpD'
p736
sg16
I700
sg17
g18
sg19
g18
sg20
S'/usr/share/fonts/stix-fonts/STIXIntUpDBol.otf'
p737
sg22
g23
sbag7
(g8
g9
NtRp738
(dp739
g12
g103
sg14
S'DejaVu Sans Mono'
p740
sg16
I400
sg17
g18
sg19
g18
sg20
S'/usr/share/fonts/dejavu/DejaVuSansMono-Oblique.ttf'
p741
sg22
g23
sbag7
(g8
g9
NtRp742
(dp743
g12
g18
sg14
S'Kochi Mincho'
p744
sg16
I400
sg17
g18
sg19
g18
sg20
S'/usr/share/fonts/kochi-substitute/kochi-mincho-subst.ttf'
p745
sg22
g23
sbag7
(g8
g9
NtRp746
(dp747
g12
g18
sg14
S'STIXSizeFiveSym'
p748
sg16
I400
sg17
g18
sg19
g18
sg20
S'/usr/share/fonts/stix-fonts/STIXSizFiveSymReg.otf'
p749
sg22
g23
sbag7
(g8
g9
NtRp750
(dp751
g12
g18
sg14
S'STIXVariants'
p752
sg16
I700
sg17
g18
sg19
g18
sg20
S'/usr/share/fonts/stix-fonts/STIXVarBol.otf'
p753
sg22
g23
sbag7
(g8
g9
NtRp754
(dp755
g12
g103
sg14
S'Luxi Mono'
p756
sg16
I700
sg17
g18
sg19
g18
sg20
S'/usr/share/fonts/TTF/luximbi.ttf'
p757
sg22
g23
sbag7
(g8
g9
NtRp758
(dp759
g12
g13
sg14
S'Serto Jerusalem'
p760
sg16
I400
sg17
g18
sg19
g18
sg20
S'/usr/share/fonts/OTF/SyrCOMJerusalemItalic.otf'
p761
sg22
g23
sbag7
(g8
g9
NtRp762
(dp763
g12
g13
sg14
S'Arial'
p764
sg16
I400
sg17
g18
sg19
g18
sg20
S'/usr/share/fonts/corefonts/ariali.ttf'
p765
sg22
g23
sbag7
(g8
g9
NtRp766
(dp767
g12
g18
sg14
S'Mathematica7'
p768
sg16
I700
sg17
g18
sg19
g18
sg20
S'/usr/share/fonts/mathematica-fonts/Mathematica7b.ttf'
p769
sg22
g23
sbag7
(g8
g9
NtRp770
(dp771
g12
g18
sg14
S'MigMix 2M'
p772
sg16
I400
sg17
g18
sg19
g18
sg20
S'/usr/share/fonts/mix-mplus-ipa/migmix-2m-regular.ttf'
p773
sg22
g23
sbag7
(g8
g9
NtRp774
(dp775
g12
g18
sg14
S'Baekmuk Gulim'
p776
sg16
I400
sg17
g18
sg19
g18
sg20
S'/usr/share/fonts/baekmuk-fonts/gulim.ttf'
p777
sg22
g23
sbag7
(g8
g9
NtRp778
(dp779
g12
g13
sg14
S'Alfios'
p780
sg16
I400
sg17
g18
sg19
g18
sg20
S'/usr/share/fonts/ancient-fonts/Alfios_I.otf'
p781
sg22
g23
sbag7
(g8
g9
NtRp782
(dp783
g12
g13
sg14
S'Charis SIL'
p784
sg16
I400
sg17
g18
sg19
g18
sg20
S'/usr/share/fonts/sil-charis/CharisSIL-I.ttf'
p785
sg22
g23
sbag7
(g8
g9
NtRp786
(dp787
g12
g18
sg14
S'Luxi Serif'
p788
sg16
I400
sg17
g18
sg19
g18
sg20
S'/usr/share/fonts/TTF/luxirr.ttf'
p789
sg22
g23
sbag7
(g8
g9
NtRp790
(dp791
g12
g103
sg14
S'Luxi Mono'
p792
sg16
I400
sg17
g18
sg19
g18
sg20
S'/usr/share/fonts/TTF/luximri.ttf'
p793
sg22
g23
sbag7
(g8
g9
NtRp794
(dp795
g12
g18
sg14
S'Mathematica2Mono'
p796
sg16
I700
sg17
g18
sg19
g18
sg20
S'/usr/share/fonts/mathematica-fonts/Mathematica2mb.ttf'
p797
sg22
g23
sbag7
(g8
g9
NtRp798
(dp799
g12
g18
sg14
S'Mathematica6Mono'
p800
sg16
I400
sg17
g18
sg19
g18
sg20
S'/usr/share/fonts/mathematica-fonts/Mathematica6m.ttf'
p801
sg22
g23
sbag7
(g8
g9
NtRp802
(dp803
g12
g18
sg14
S'Migu 1M'
p804
sg16
I400
sg17
g18
sg19
g18
sg20
S'/usr/share/fonts/mix-mplus-ipa/migu-1m-regular.ttf'
p805
sg22
g23
sbag7
(g8
g9
NtRp806
(dp807
g12
g18
sg14
S'Mathematica1'
p808
sg16
I700
sg17
g18
sg19
g18
sg20
S'/usr/share/fonts/mathematica-fonts/Mathematica1b.ttf'
p809
sg22
g23
sbag7
(g8
g9
NtRp810
(dp811
g12
g18
sg14
S'Lohit Hindi'
p812
sg16
I400
sg17
g18
sg19
g18
sg20
S'/usr/share/fonts/indic/lohit_hi.ttf'
p813
sg22
g23
sbag7
(g8
g9
NtRp814
(dp815
g12
g18
sg14
S'DejaVu Sans'
p816
sg16
I700
sg17
g18
sg19
g18
sg20
S'/usr/share/fonts/dejavu/DejaVuSans-Bold.ttf'
p817
sg22
g23
sbag7
(g8
g9
NtRp818
(dp819
g12
g18
sg14
S'Lohit Maithili'
p820
sg16
I400
sg17
g18
sg19
g18
sg20
S'/usr/share/fonts/indic/lohit_mai.ttf'
p821
sg22
g23
sbag7
(g8
g9
NtRp822
(dp823
g12
g13
sg14
S'Junicode'
p824
sg16
I400
sg17
g18
sg19
g18
sg20
S'/home/amon/.fonts/Junicode-Italic.ttf'
p825
sg22
g23
sbag7
(g8
g9
NtRp826
(dp827
g12
g18
sg14
S'STIXIntegralsUpSm'
p828
sg16
I700
sg17
g18
sg19
g18
sg20
S'/usr/share/fonts/stix-fonts/STIXIntUpSmBol.otf'
p829
sg22
g23
sbag7
(g8
g9
NtRp830
(dp831
g12
g13
sg14
S'STIXGeneral'
p832
sg16
I700
sg17
g18
sg19
g18
sg20
S'/usr/share/fonts/stix-fonts/STIXGeneralBolIta.otf'
p833
sg22
g23
sbag7
(g8
g9
NtRp834
(dp835
g12
g18
sg14
S'Serto Malankara'
p836
sg16
I400
sg17
g18
sg19
g18
sg20
S'/usr/share/fonts/OTF/SyrCOMMalankara.otf'
p837
sg22
g23
sbag7
(g8
g9
NtRp838
(dp839
g12
g18
sg14
S'Mathematica2'
p840
sg16
I400
sg17
g18
sg19
g18
sg20
S'/usr/share/fonts/mathematica-fonts/Mathematica2.ttf'
p841
sg22
g23
sbag7
(g8
g9
NtRp842
(dp843
g12
g18
sg14
S'Mathematica7'
p844
sg16
I400
sg17
g18
sg19
g18
sg20
S'/usr/share/fonts/mathematica-fonts/Mathematica7.ttf'
p845
sg22
g23
sbag7
(g8
g9
NtRp846
(dp847
g12
g18
sg14
S'Padauk'
p848
sg16
I700
sg17
g18
sg19
g18
sg20
S'/usr/share/fonts/sil-padauk/Padauk-bold.ttf'
p849
sg22
g23
sbag7
(g8
g9
NtRp850
(dp851
g12
g13
sg14
S'Roboto'
p852
sg16
I200
sg17
g18
sg19
g18
sg20
S'/usr/share/fonts/roboto/Roboto-LightItalic.ttf'
p853
sg22
g23
sbag7
(g8
g9
NtRp854
(dp855
g12
g103
sg14
S'DejaVu Sans'
p856
sg16
I700
sg17
g18
sg19
g18
sg20
S'/usr/share/fonts/dejavu/DejaVuSans-BoldOblique.ttf'
p857
sg22
g23
sbag7
(g8
g9
NtRp858
(dp859
g12
g18
sg14
S'DejaVu Sans Light'
p860
sg16
I200
sg17
g18
sg19
g18
sg20
S'/usr/share/fonts/dejavu/DejaVuSans-ExtraLight.ttf'
p861
sg22
g23
sbag7
(g8
g9
NtRp862
(dp863
g12
g18
sg14
S'Droid Sans Mono Dotted'
p864
sg16
I400
sg17
g18
sg19
g18
sg20
S'/usr/share/fonts/droid/DroidSansMonoDotted.ttf'
p865
sg22
g23
sbag7
(g8
g9
NtRp866
(dp867
g12
g18
sg14
S'MigMix 2P'
p868
sg16
I700
sg17
g18
sg19
g18
sg20
S'/usr/share/fonts/mix-mplus-ipa/migmix-2p-bold.ttf'
p869
sg22
g23
sbag7
(g8
g9
NtRp870
(dp871
g12
g18
sg14
S'Alfios'
p872
sg16
I400
sg17
g18
sg19
g18
sg20
S'/usr/share/fonts/ancient-fonts/Alfios_R.otf'
p873
sg22
g23
sbag7
(g8
g9
NtRp874
(dp875
g12
g13
sg14
S'Trebuchet MS'
p876
sg16
I400
sg17
g18
sg19
g18
sg20
S'/usr/share/fonts/corefonts/trebucit.ttf'
p877
sg22
g23
sbag7
(g8
g9
NtRp878
(dp879
g12
g18
sg14
S'Junicode'
p880
sg16
I400
sg17
g18
sg19
g18
sg20
S'/home/amon/.fonts/Junicode.ttf'
p881
sg22
g23
sbag7
(g8
g9
NtRp882
(dp883
g12
g18
sg14
S'Gentium Plus'
p884
sg16
I400
sg17
g18
sg19
g18
sg20
S'/usr/share/fonts/sil-gentium/GentiumPlus-R.ttf'
p885
sg22
g23
sbag7
(g8
g9
NtRp886
(dp887
g12
g18
sg14
S'Droid Sans'
p888
sg16
I400
sg17
g18
sg19
g18
sg20
S'/usr/share/fonts/droid/DroidSans.ttf'
p889
sg22
g23
sbag7
(g8
g9
NtRp890
(dp891
g12
g13
sg14
S'Alfios'
p892
sg16
I700
sg17
g18
sg19
g18
sg20
S'/usr/share/fonts/ancient-fonts/Alfios_J.otf'
p893
sg22
g23
sbag7
(g8
g9
NtRp894
(dp895
g12
g18
sg14
S'LKLUG'
p896
sg16
I400
sg17
g18
sg19
g18
sg20
S'/usr/share/fonts/lklug/lklug.ttf'
p897
sg22
g23
sbag7
(g8
g9
NtRp898
(dp899
g12
g18
sg14
S'STIXSizeOneSym'
p900
sg16
I700
sg17
g18
sg19
g18
sg20
S'/usr/share/fonts/stix-fonts/STIXSizOneSymBol.otf'
p901
sg22
g23
sbag7
(g8
g9
NtRp902
(dp903
g12
g103
sg14
S'DejaVu Sans Condensed'
p904
sg16
I700
sg17
g71
sg19
g18
sg20
S'/usr/share/fonts/dejavu/DejaVuSansCondensed-BoldOblique.ttf'
p905
sg22
g23
sbag7
(g8
g9
NtRp906
(dp907
g12
g18
sg14
S'STIXSizeFourSym'
p908
sg16
I700
sg17
g18
sg19
g18
sg20
S'/usr/share/fonts/stix-fonts/STIXSizFourSymBol.otf'
p909
sg22
g23
sbag7
(g8
g9
NtRp910
(dp911
g12
g18
sg14
S'Musica'
p912
sg16
I400
sg17
g18
sg19
g18
sg20
S'/usr/share/fonts/ancient-fonts/Musica306.otf'
p913
sg22
g23
sbag7
(g8
g9
NtRp914
(dp915
g12
g18
sg14
S'Alfios'
p916
sg16
I700
sg17
g18
sg19
g18
sg20
S'/usr/share/fonts/ancient-fonts/Alfios_B.otf'
p917
sg22
g23
sbag7
(g8
g9
NtRp918
(dp919
g12
g18
sg14
S'STIXSizeTwoSym'
p920
sg16
I400
sg17
g18
sg19
g18
sg20
S'/usr/share/fonts/stix-fonts/STIXSizTwoSymReg.otf'
p921
sg22
g23
sbag7
(g8
g9
NtRp922
(dp923
g12
g18
sg14
S'Mathematica3Mono'
p924
sg16
I400
sg17
g18
sg19
g18
sg20
S'/usr/share/fonts/mathematica-fonts/Mathematica3m.ttf'
p925
sg22
g23
sbag7
(g8
g9
NtRp926
(dp927
g12
g18
sg14
S'Droid Serif'
p928
sg16
I700
sg17
g18
sg19
g18
sg20
S'/usr/share/fonts/droid/DroidSerif-Bold.ttf'
p929
sg22
g23
sbag7
(g8
g9
NtRp930
(dp931
g12
g18
sg14
S'Anatolian'
p932
sg16
I400
sg17
g18
sg19
g18
sg20
S'/usr/share/fonts/ancient-fonts/Anatolian306.ttf'
p933
sg22
g23
sbag7
(g8
g9
NtRp934
(dp935
g12
g13
sg14
S'Roboto'
p936
sg16
I700
sg17
g18
sg19
g18
sg20
S'/usr/share/fonts/roboto/Roboto-BoldItalic.ttf'
p937
sg22
g23
sbag7
(g8
g9
NtRp938
(dp939
g12
g18
sg14
S'Serto Jerusalem Outline'
p940
sg16
I400
sg17
g18
sg19
g18
sg20
S'/usr/share/fonts/OTF/SyrCOMJerusalemOutline.otf'
p941
sg22
g23
sbag7
(g8
g9
NtRp942
(dp943
g12
g13
sg14
S'Gentium Plus'
p944
sg16
I400
sg17
g18
sg19
g18
sg20
S'/usr/share/fonts/sil-gentium/GentiumPlus-I.ttf'
p945
sg22
g23
sbag7
(g8
g9
NtRp946
(dp947
g12
g18
sg14
S'Junicode'
p948
sg16
I700
sg17
g18
sg19
g18
sg20
S'/home/amon/.fonts/Junicode-Bold.ttf'
p949
sg22
g23
sbag7
(g8
g9
NtRp950
(dp951
g12
g18
sg14
S'Doulos SIL'
p952
sg16
I400
sg17
g18
sg19
g18
sg20
S'/usr/share/fonts/sil-doulos/DoulosSIL-R.ttf'
p953
sg22
g23
sbag7
(g8
g9
NtRp954
(dp955
g12
g18
sg14
S'STIXIntegralsSm'
p956
sg16
I700
sg17
g18
sg19
g18
sg20
S'/usr/share/fonts/stix-fonts/STIXIntSmBol.otf'
p957
sg22
g23
sbag7
(g8
g9
NtRp958
(dp959
g12
g18
sg14
S'Liberation Serif'
p960
sg16
I400
sg17
g18
sg19
g18
sg20
S'/usr/share/fonts/liberation-fonts/LiberationSerif-Regular.ttf'
p961
sg22
g23
sbag7
(g8
g9
NtRp962
(dp963
g12
g18
sg14
S'DejaVu Serif'
p964
sg16
I400
sg17
g18
sg19
g18
sg20
S'/usr/share/fonts/dejavu/DejaVuSerif.ttf'
p965
sg22
g23
sbag7
(g8
g9
NtRp966
(dp967
g12
g18
sg14
S'Verdana'
p968
sg16
I400
sg17
g18
sg19
g18
sg20
S'/usr/share/fonts/corefonts/verdana.ttf'
p969
sg22
g23
sbag7
(g8
g9
NtRp970
(dp971
g12
g18
sg14
S'Droid Serif'
p972
sg16
I400
sg17
g18
sg19
g18
sg20
S'/usr/share/fonts/droid/DroidSerif-Regular.ttf'
p973
sg22
g23
sbag7
(g8
g9
NtRp974
(dp975
g12
g103
sg14
S'Luxi Sans'
p976
sg16
I400
sg17
g18
sg19
g18
sg20
S'/usr/share/fonts/TTF/luxisri.ttf'
p977
sg22
g23
sbag7
(g8
g9
NtRp978
(dp979
g12
g18
sg14
S'Mathematica3Mono'
p980
sg16
I700
sg17
g18
sg19
g18
sg20
S'/usr/share/fonts/mathematica-fonts/Mathematica3mb.ttf'
p981
sg22
g23
sbag7
(g8
g9
NtRp982
(dp983
g12
g18
sg14
S'Comic Sans MS'
p984
sg16
I400
sg17
g18
sg19
g18
sg20
S'/usr/share/fonts/corefonts/comic.ttf'
p985
sg22
g23
sbag7
(g8
g9
NtRp986
(dp987
g12
g18
sg14
S'Inconsolata'
p988
sg16
I400
sg17
g18
sg19
g18
sg20
S'/usr/share/fonts/inconsolata/Inconsolata.otf'
p989
sg22
g23
sbag7
(g8
g9
NtRp990
(dp991
g12
g18
sg14
S'DejaVu Sans Condensed'
p992
sg16
I700
sg17
g71
sg19
g18
sg20
S'/usr/share/fonts/dejavu/DejaVuSansCondensed-Bold.ttf'
p993
sg22
g23
sbag7
(g8
g9
NtRp994
(dp995
g12
g18
sg14
S'Lohit Assamese'
p996
sg16
I400
sg17
g18
sg19
g18
sg20
S'/usr/share/fonts/indic/lohit_as.ttf'
p997
sg22
g23
sbag7
(g8
g9
NtRp998
(dp999
g12
g18
sg14
S'Akkadian'
p1000
sg16
I400
sg17
g18
sg19
g18
sg20
S'/usr/share/fonts/ancient-fonts/Akkadian256.otf'
p1001
sg22
g23
sbag7
(g8
g9
NtRp1002
(dp1003
g12
g18
sg14
S'Roboto Condensed'
p1004
sg16
I200
sg17
g71
sg19
g18
sg20
S'/usr/share/fonts/roboto/RobotoCondensed-Light.ttf'
p1005
sg22
g23
sbag7
(g8
g9
NtRp1006
(dp1007
g12
g18
sg14
S'Unidings'
p1008
sg16
I400
sg17
g18
sg19
g18
sg20
S'/usr/share/fonts/ancient-fonts/Unidings605.ttf'
p1009
sg22
g23
sbag7
(g8
g9
NtRp1010
(dp1011
g12
g18
sg14
S'East Syriac Ctesiphon'
p1012
sg16
I400
sg17
g18
sg19
g18
sg20
S'/usr/share/fonts/OTF/SyrCOMCtesiphon.otf'
p1013
sg22
g23
sbag7
(g8
g9
NtRp1014
(dp1015
g12
g13
sg14
S'Avdira'
p1016
sg16
I700
sg17
g18
sg19
g18
sg20
S'/usr/share/fonts/ancient-fonts/Avdira_J.otf'
p1017
sg22
g23
sbag7
(g8
g9
NtRp1018
(dp1019
g12
g13
sg14
S'DejaVu Serif'
p1020
sg16
I700
sg17
g18
sg19
g18
sg20
S'/usr/share/fonts/dejavu/DejaVuSerif-BoldItalic.ttf'
p1021
sg22
g23
sbag7
(g8
g9
NtRp1022
(dp1023
g12
g103
sg14
S'Luxi Sans'
p1024
sg16
I700
sg17
g18
sg19
g18
sg20
S'/usr/share/fonts/TTF/luxisbi.ttf'
p1025
sg22
g23
sbag7
(g8
g9
NtRp1026
(dp1027
g12
g18
sg14
S'Arial'
p1028
sg16
I700
sg17
g18
sg19
g18
sg20
S'/usr/share/fonts/corefonts/arialbd.ttf'
p1029
sg22
g23
sbag7
(g8
g9
NtRp1030
(dp1031
g12
g18
sg14
S'Charis SIL'
p1032
sg16
I700
sg17
g18
sg19
g18
sg20
S'/usr/share/fonts/sil-charis/CharisSIL-B.ttf'
p1033
sg22
g23
sbag7
(g8
g9
NtRp1034
(dp1035
g12
g18
sg14
S'Avdira'
p1036
sg16
I400
sg17
g18
sg19
g18
sg20
S'/usr/share/fonts/ancient-fonts/Avdira_R.otf'
p1037
sg22
g23
sbag7
(g8
g9
NtRp1038
(dp1039
g12
g18
sg14
S'East Syriac Adiabene'
p1040
sg16
I400
sg17
g18
sg19
g18
sg20
S'/usr/share/fonts/OTF/SyrCOMAdiabene.otf'
p1041
sg22
g23
sbag7
(g8
g9
NtRp1042
(dp1043
g12
g13
sg14
S'Droid Serif'
p1044
sg16
I400
sg17
g18
sg19
g18
sg20
S'/usr/share/fonts/droid/DroidSerif-Italic.ttf'
p1045
sg22
g23
sbag7
(g8
g9
NtRp1046
(dp1047
g12
g13
sg14
S'Roboto'
p1048
sg16
I400
sg17
g18
sg19
g18
sg20
S'/usr/share/fonts/roboto/Roboto-Italic.ttf'
p1049
sg22
g23
sbag7
(g8
g9
NtRp1050
(dp1051
g12
g18
sg14
S'STIXIntegralsUpD'
p1052
sg16
I400
sg17
g18
sg19
g18
sg20
S'/usr/share/fonts/stix-fonts/STIXIntUpDReg.otf'
p1053
sg22
g23
sbag7
(g8
g9
NtRp1054
(dp1055
g12
g18
sg14
S'Atavyros'
p1056
sg16
I400
sg17
g18
sg19
g18
sg20
S'/usr/share/fonts/ancient-fonts/Atavyros.otf'
p1057
sg22
g23
sbag7
(g8
g9
NtRp1058
(dp1059
g12
g18
sg14
S'Padauk'
p1060
sg16
I400
sg17
g18
sg19
g18
sg20
S'/usr/share/fonts/sil-padauk/Padauk.ttf'
p1061
sg22
g23
sbag7
(g8
g9
NtRp1062
(dp1063
g12
g18
sg14
S'Lohit Kannada'
p1064
sg16
I400
sg17
g18
sg19
g18
sg20
S'/usr/share/fonts/indic/lohit_kn.ttf'
p1065
sg22
g23
sbag7
(g8
g9
NtRp1066
(dp1067
g12
g13
sg14
S'Verdana'
p1068
sg16
I700
sg17
g18
sg19
g18
sg20
S'/usr/share/fonts/corefonts/verdanaz.ttf'
p1069
sg22
g23
sbag7
(g8
g9
NtRp1070
(dp1071
g12
g18
sg14
S'Times New Roman'
p1072
sg16
I700
sg17
g18
sg19
g18
sg20
S'/usr/share/fonts/corefonts/timesbd.ttf'
p1073
sg22
g23
sbag7
(g8
g9
NtRp1074
(dp1075
g12
g18
sg14
S'Droid Sans Mono Slashed'
p1076
sg16
I400
sg17
g18
sg19
g18
sg20
S'/usr/share/fonts/droid/DroidSansMonoSlashed.ttf'
p1077
sg22
g23
sbag7
(g8
g9
NtRp1078
(dp1079
g12
g13
sg14
S'Liberation Mono'
p1080
sg16
I400
sg17
g18
sg19
g18
sg20
S'/usr/share/fonts/liberation-fonts/LiberationMono-Italic.ttf'
p1081
sg22
g23
sbag7
(g8
g9
NtRp1082
(dp1083
g12
g13
sg14
S'Arial'
p1084
sg16
I700
sg17
g18
sg19
g18
sg20
S'/usr/share/fonts/corefonts/arialbi.ttf'
p1085
sg22
g23
sbag7
(g8
g9
NtRp1086
(dp1087
g12
g18
sg14
S'Padauk Book'
p1088
sg16
I400
sg17
g18
sg19
g18
sg20
S'/usr/share/fonts/sil-padauk/Padauk-book.ttf'
p1089
sg22
g23
sbag7
(g8
g9
NtRp1090
(dp1091
g12
g18
sg14
S'DejaVu Sans'
p1092
sg16
I400
sg17
g18
sg19
g18
sg20
S'/usr/share/fonts/dejavu/DejaVuSans.ttf'
p1093
sg22
g23
sbag7
(g8
g9
NtRp1094
(dp1095
g12
g18
sg14
S'Galatia SIL'
p1096
sg16
I400
sg17
g18
sg19
g18
sg20
S'/usr/share/fonts/sil-galatia/GalSILR.ttf'
p1097
sg22
g23
sbag7
(g8
g9
NtRp1098
(dp1099
g12
g18
sg14
S'Abyssinica SIL'
p1100
sg16
I400
sg17
g18
sg19
g18
sg20
S'/usr/share/fonts/sil-abyssinica/AbyssinicaSIL-R.ttf'
p1101
sg22
g23
sbag7
(g8
g9
NtRp1102
(dp1103
g12
g18
sg14
S'Mathematica1Mono'
p1104
sg16
I700
sg17
g18
sg19
g18
sg20
S'/usr/share/fonts/mathematica-fonts/Mathematica1mb.ttf'
p1105
sg22
g23
sbag7
(g8
g9
NtRp1106
(dp1107
g12
g18
sg14
S'Estrangelo Nisibin'
p1108
sg16
I400
sg17
g18
sg19
g18
sg20
S'/usr/share/fonts/OTF/SyrCOMNisibin.otf'
p1109
sg22
g23
sbag7
(g8
g9
NtRp1110
(dp1111
g12
g13
sg14
S'Anonymous Pro'
p1112
sg16
I400
sg17
g18
sg19
g18
sg20
S'/usr/share/fonts/anonymous-pro/Anonymous Pro I.ttf'
p1113
sg22
g23
sbag7
(g8
g9
NtRp1114
(dp1115
g12
g18
sg14
S'Mathematica5'
p1116
sg16
I400
sg17
g18
sg19
g18
sg20
S'/usr/share/fonts/mathematica-fonts/Mathematica5.ttf'
p1117
sg22
g23
sbag7
(g8
g9
NtRp1118
(dp1119
g12
g13
sg14
S'Times New Roman'
p1120
sg16
I700
sg17
g18
sg19
g18
sg20
S'/usr/share/fonts/corefonts/timesbi.ttf'
p1121
sg22
g23
sbag7
(g8
g9
NtRp1122
(dp1123
g12
g18
sg14
S'Mathematica5Mono'
p1124
sg16
I400
sg17
g18
sg19
g18
sg20
S'/usr/share/fonts/mathematica-fonts/Mathematica5m.ttf'
p1125
sg22
g23
sbag7
(g8
g9
NtRp1126
(dp1127
g12
g18
sg14
S'STIXSizeThreeSym'
p1128
sg16
I700
sg17
g18
sg19
g18
sg20
S'/usr/share/fonts/stix-fonts/STIXSizThreeSymBol.otf'
p1129
sg22
g23
sbag7
(g8
g9
NtRp1130
(dp1131
g12
g18
sg14
S'Serto Mardin'
p1132
sg16
I700
sg17
g18
sg19
g18
sg20
S'/usr/share/fonts/OTF/SyrCOMMardinBold.otf'
p1133
sg22
g23
sbag7
(g8
g9
NtRp1134
(dp1135
g12
g13
sg14
S'Roboto Condensed'
p1136
sg16
I400
sg17
g71
sg19
g18
sg20
S'/usr/share/fonts/roboto/RobotoCondensed-Italic.ttf'
p1137
sg22
g23
sbag7
(g8
g9
NtRp1138
(dp1139
g12
g18
sg14
S'Galatia SIL'
p1140
sg16
I700
sg17
g18
sg19
g18
sg20
S'/usr/share/fonts/sil-galatia/GalSILB.ttf'
p1141
sg22
g23
sbag7
(g8
g9
NtRp1142
(dp1143
g12
g18
sg14
S'Estrangelo Edessa'
p1144
sg16
I400
sg17
g18
sg19
g18
sg20
S'/usr/share/fonts/OTF/SyrCOMEdessa.otf'
p1145
sg22
g23
sbag7
(g8
g9
NtRp1146
(dp1147
g12
g18
sg14
S'Ricty'
p1148
sg16
I700
sg17
g18
sg19
g18
sg20
S'/usr/share/fonts/ricty/Ricty-Bold.ttf'
p1149
sg22
g23
sbag7
(g8
g9
NtRp1150
(dp1151
g12
g13
sg14
S'Liberation Mono'
p1152
sg16
I700
sg17
g18
sg19
g18
sg20
S'/usr/share/fonts/liberation-fonts/LiberationMono-BoldItalic.ttf'
p1153
sg22
g23
sbag7
(g8
g9
NtRp1154
(dp1155
g12
g18
sg14
S'Baekmuk Batang'
p1156
sg16
I400
sg17
g18
sg19
g18
sg20
S'/usr/share/fonts/baekmuk-fonts/batang.ttf'
p1157
sg22
g23
sbag7
(g8
g9
NtRp1158
(dp1159
g12
g18
sg14
S'STIXSizeTwoSym'
p1160
sg16
I700
sg17
g18
sg19
g18
sg20
S'/usr/share/fonts/stix-fonts/STIXSizTwoSymBol.otf'
p1161
sg22
g23
sbag7
(g8
g9
NtRp1162
(dp1163
g12
g18
sg14
S'Baekmuk Dotum'
p1164
sg16
I400
sg17
g18
sg19
g18
sg20
S'/usr/share/fonts/baekmuk-fonts/dotum.ttf'
p1165
sg22
g23
sbag7
(g8
g9
NtRp1166
(dp1167
g12
g18
sg14
S'MigMix 2M'
p1168
sg16
I700
sg17
g18
sg19
g18
sg20
S'/usr/share/fonts/mix-mplus-ipa/migmix-2m-bold.ttf'
p1169
sg22
g23
sbag7
(g8
g9
NtRp1170
(dp1171
g12
g18
sg14
S'Migu 2M'
p1172
sg16
I700
sg17
g18
sg19
g18
sg20
S'/usr/share/fonts/mix-mplus-ipa/migu-2m-bold.ttf'
p1173
sg22
g23
sbag7
(g8
g9
NtRp1174
(dp1175
g12
g18
sg14
S'Luxi Serif'
p1176
sg16
I700
sg17
g18
sg19
g18
sg20
S'/usr/share/fonts/TTF/luxirb.ttf'
p1177
sg22
g23
sbag7
(g8
g9
NtRp1178
(dp1179
g12
g18
sg14
S'Courier New'
p1180
sg16
I700
sg17
g18
sg19
g18
sg20
S'/usr/share/fonts/corefonts/courbd.ttf'
p1181
sg22
g23
sbag7
(g8
g9
NtRp1182
(dp1183
g12
g18
sg14
S'Webdings'
p1184
sg16
I400
sg17
g18
sg19
g18
sg20
S'/usr/share/fonts/corefonts/webdings.ttf'
p1185
sg22
g23
sbag7
(g8
g9
NtRp1186
(dp1187
g12
g18
sg14
S'Times New Roman'
p1188
sg16
I500
sg17
g18
sg19
g18
sg20
S'/usr/share/fonts/corefonts/times.ttf'
p1189
sg22
g23
sbag7
(g8
g9
NtRp1190
(dp1191
g12
g18
sg14
S'Serto Urhoy'
p1192
sg16
I700
sg17
g18
sg19
g18
sg20
S'/usr/share/fonts/OTF/SyrCOMUrhoyBold.otf'
p1193
sg22
g23
sbag7
(g8
g9
NtRp1194
(dp1195
g12
g18
sg14
S'STIXSizeOneSym'
p1196
sg16
I400
sg17
g18
sg19
g18
sg20
S'/usr/share/fonts/stix-fonts/STIXSizOneSymReg.otf'
p1197
sg22
g23
sbag7
(g8
g9
NtRp1198
(dp1199
g12
g18
sg14
S'MigMix 1P'
p1200
sg16
I700
sg17
g18
sg19
g18
sg20
S'/usr/share/fonts/mix-mplus-ipa/migmix-1p-bold.ttf'
p1201
sg22
g23
sbag7
(g8
g9
NtRp1202
(dp1203
g12
g18
sg14
S'Roboto'
p1204
sg16
I500
sg17
g18
sg19
g18
sg20
S'/usr/share/fonts/roboto/Roboto-Medium.ttf'
p1205
sg22
g23
sbasS'defaultFamily'
p1206
(dp1207
S'afm'
p1208
S'Helvetica'
p1209
sS'ttf'
p1210
S'Bitstream Vera Sans'
p1211
ssS'ttffiles'
p1212
(lp1213
g21
ag27
aS'/home/amon/.fonts/MSGOTHIC.ttf'
p1214
ag31
ag35
ag39
ag43
ag47
ag51
ag55
aS'/usr/share/fonts/droid/DroidSansFallbackLegacy.ttf'
p1215
ag59
ag63
ag67
ag72
ag76
ag80
ag84
ag88
ag92
ag96
ag100
ag105
ag109
aS'/home/amon/.fonts/onryou.ttf'
p1216
ag113
ag117
ag121
ag125
ag129
ag133
ag137
ag141
ag145
ag149
ag153
ag157
ag161
ag165
ag169
ag173
ag177
ag181
ag185
ag189
ag193
ag197
ag201
ag205
ag209
ag213
ag217
ag221
ag225
ag229
ag233
ag237
ag241
ag245
ag249
ag253
ag257
ag261
ag265
ag269
ag273
ag277
aS'/usr/share/fonts/arphicfonts/bsmi00lp.ttf'
p1217
ag281
aS'/home/amon/.fonts/MSMINCHO.ttf'
p1218
ag285
ag289
ag293
ag297
ag301
ag305
ag309
ag313
ag317
ag321
ag325
ag329
ag333
ag337
ag341
ag345
ag349
ag353
ag357
ag361
ag365
ag369
ag373
ag377
ag381
ag385
aS'/usr/share/fonts/mathematica-fonts/VeraBd.ttf'
p1219
ag389
ag393
ag397
ag401
ag405
ag409
ag413
ag417
ag421
ag425
ag429
ag433
ag437
ag441
ag445
ag449
ag453
ag457
ag461
aS'/usr/share/fonts/ttf-bitstream-vera/VeraMoBd.ttf'
p1220
ag465
ag469
ag473
ag477
ag481
ag485
ag489
ag493
ag497
ag501
ag505
ag509
ag513
ag517
ag521
ag525
ag529
ag533
ag537
ag541
ag545
ag549
ag553
ag557
ag561
ag565
ag569
ag573
ag577
ag581
ag585
ag589
ag593
ag597
ag601
ag605
ag609
ag613
ag617
ag621
ag625
ag629
ag633
ag637
ag641
ag645
ag649
ag653
ag657
ag661
ag665
ag669
ag673
ag677
ag681
ag685
ag689
ag693
ag697
ag701
ag705
ag709
ag713
ag717
ag721
ag725
ag729
ag733
ag737
aS'/usr/share/fonts/droid/DroidSansHebrew.ttf'
p1221
ag741
ag745
ag749
ag753
ag757
ag761
aS'/usr/share/fonts/arphicfonts/gbsn00lp.ttf'
p1222
ag765
ag769
ag773
aS'/usr/share/fonts/ttf-bitstream-vera/VeraBI.ttf'
p1223
ag777
ag781
ag785
ag789
ag793
ag797
ag801
ag805
ag809
aS'/usr/share/fonts/droid/DroidSansJapanese.ttf'
p1224
ag813
ag817
ag821
ag825
ag829
ag833
ag837
ag841
ag845
ag849
ag853
ag857
ag861
aS'/usr/share/fonts/mathematica-fonts/Vera.ttf'
p1225
ag865
aS'/home/amon/.fonts/fontawesome-webfont.ttf'
p1226
ag869
aS'/usr/share/fonts/ttf-bitstream-vera/VeraSe.ttf'
p1227
ag873
ag877
ag881
ag885
ag889
ag893
ag897
ag901
ag905
ag909
ag913
ag917
ag921
ag925
ag929
ag933
ag937
aS'/usr/share/fonts/ttf-bitstream-vera/VeraMono.ttf'
p1228
ag941
ag945
ag949
ag953
ag957
ag961
ag965
ag969
ag973
ag977
ag981
ag985
ag989
ag993
ag997
ag1001
ag1005
aS'/usr/share/fonts/mathematica-fonts/VeraSeBd.ttf'
p1229
ag1009
ag1013
ag1017
aS'/usr/share/fonts/ttf-bitstream-vera/VeraIt.ttf'
p1230
ag1021
ag1025
ag1029
ag1033
ag1037
ag1041
ag1045
ag1049
ag1053
ag1057
ag1061
ag1065
ag1069
ag1073
ag1077
ag1081
ag1085
ag1089
ag1093
ag1097
ag1101
ag1105
ag1109
ag1113
ag1117
ag1121
ag1125
ag1129
ag1133
ag1137
aS'/usr/share/fonts/mathematica-fonts/VeraMoIt.ttf'
p1231
ag1141
aS'/usr/share/fonts/droid/DroidSansFallback.ttf'
p1232
ag1145
ag1149
ag1153
aS'/usr/share/fonts/arphicfonts/gkai00mp.ttf'
p1233
ag1157
ag1161
ag1165
ag1169
ag1173
aS'/usr/share/fonts/mathematica-fonts/VeraMoBI.ttf'
p1234
ag1177
aS'/usr/share/fonts/arphicfonts/bkai00mp.ttf'
p1235
ag1181
ag1185
ag1189
ag1193
ag1197
ag1201
ag1205
aS'/usr/share/fonts/droid/DroidSansArabic.ttf'
p1236
asS'_FontManager__default_weight'
p1237
g18
sS'_version'
p1238
I7
sS'ttf_lookup_cache'
p1239
(dp1240
sS'default_size'
p1241
NsS'defaultFont'
p1242
(dp1243
g1208
Nsg1210
g409
ssS'afmfiles'
p1244
(lp1245
S'/usr/share/fonts/urw-fonts/n019044l.afm'
p1246
aS'/usr/share/fonts/urw-fonts/n019064l.afm'
p1247
aS'/usr/share/fonts/Type1/cour.afm'
p1248
aS'/usr/share/fonts/Type1/l049016t.afm'
p1249
aS'/usr/share/fonts/Type1/l048036t.afm'
p1250
aS'/usr/share/fonts/Type1/l048033t.afm'
p1251
aS'/usr/share/fonts/Type1/l048016t.afm'
p1252
aS'/usr/share/fonts/urw-fonts/n021004l.afm'
p1253
aS'/usr/share/fonts/Type1/l049013t.afm'
p1254
aS'/usr/share/fonts/urw-fonts/b018032l.afm'
p1255
aS'/usr/share/fonts/urw-fonts/c059036l.afm'
p1256
aS'/usr/share/fonts/Type1/courbi.afm'
p1257
aS'/usr/share/fonts/urw-fonts/n019004l.afm'
p1258
aS'/usr/share/fonts/urw-fonts/n019043l.afm'
p1259
aS'/usr/share/fonts/Type1/c0632bt_.afm'
p1260
aS'/usr/share/fonts/urw-fonts/n019003l.afm'
p1261
aS'/usr/share/fonts/Type1/l047013t.afm'
p1262
aS'/usr/share/fonts/Type1/l049033t.afm'
p1263
aS'/usr/share/fonts/Type1/c0611bt_.afm'
p1264
aS'/usr/share/fonts/urw-fonts/n019024l.afm'
p1265
aS'/usr/share/fonts/Type1/l047016t.afm'
p1266
aS'/usr/share/fonts/Type1/l047033t.afm'
p1267
aS'/usr/share/fonts/Type1/l047036t.afm'
p1268
aS'/usr/share/fonts/urw-fonts/n022023l.afm'
p1269
aS'/usr/share/fonts/Type1/UTBI____.afm'
p1270
aS'/usr/share/fonts/Type1/couri.afm'
p1271
aS'/usr/share/fonts/urw-fonts/b018012l.afm'
p1272
aS'/usr/share/fonts/urw-fonts/d050000l.afm'
p1273
aS'/usr/share/fonts/urw-fonts/n019023l.afm'
p1274
aS'/usr/share/fonts/urw-fonts/n021023l.afm'
p1275
aS'/usr/share/fonts/urw-fonts/p052003l.afm'
p1276
aS'/usr/share/fonts/Type1/c0583bt_.afm'
p1277
aS'/usr/share/fonts/urw-fonts/n019063l.afm'
p1278
aS'/usr/share/fonts/urw-fonts/b018015l.afm'
p1279
aS'/usr/share/fonts/Type1/c0633bt_.afm'
p1280
aS'/usr/share/fonts/urw-fonts/z003034l.afm'
p1281
aS'/usr/share/fonts/Type1/c0648bt_.afm'
p1282
aS'/usr/share/fonts/urw-fonts/c059013l.afm'
p1283
aS'/usr/share/fonts/urw-fonts/c059033l.afm'
p1284
aS'/usr/share/fonts/Type1/l049036t.afm'
p1285
aS'/usr/share/fonts/Type1/c0649bt_.afm'
p1286
aS'/usr/share/fonts/urw-fonts/n022003l.afm'
p1287
aS'/usr/share/fonts/urw-fonts/c059016l.afm'
p1288
aS'/usr/share/fonts/Type1/c0582bt_.afm'
p1289
aS'/usr/share/fonts/Type1/UTRG____.afm'
p1290
aS'/usr/share/fonts/Type1/l048013t.afm'
p1291
aS'/usr/share/fonts/urw-fonts/b018035l.afm'
p1292
aS'/usr/share/fonts/Type1/UTB_____.afm'
p1293
aS'/usr/share/fonts/Type1/courb.afm'
p1294
aS'/usr/share/fonts/urw-fonts/n022024l.afm'
p1295
aS'/usr/share/fonts/urw-fonts/s050000l.afm'
p1296
aS'/usr/share/fonts/urw-fonts/n022004l.afm'
p1297
aS'/usr/share/fonts/urw-fonts/a010035l.afm'
p1298
aS'/usr/share/fonts/Type1/c0419bt_.afm'
p1299
aS'/usr/share/fonts/Type1/UTI_____.afm'
p1300
aS'/usr/share/fonts/urw-fonts/a010015l.afm'
p1301
aS'/usr/share/fonts/urw-fonts/n021024l.afm'
p1302
aS'/usr/share/fonts/urw-fonts/a010013l.afm'
p1303
aS'/usr/share/fonts/urw-fonts/a010033l.afm'
p1304
aS'/usr/share/fonts/urw-fonts/p052024l.afm'
p1305
aS'/usr/share/fonts/urw-fonts/n021003l.afm'
p1306
aS'/usr/share/fonts/urw-fonts/p052023l.afm'
p1307
aS'/usr/share/fonts/urw-fonts/p052004l.afm'
p1308
asS'afmlist'
p1309
(lp1310
g7
(g8
g9
NtRp1311
(dp1312
g12
g18
sg14
S'Nimbus Sans L'
p1313
sg16
I700
sg17
g71
sg19
g18
sg20
g1246
sg22
g23
sbag7
(g8
g9
NtRp1314
(dp1315
g12
g13
sg14
S'Nimbus Sans L'
p1316
sg16
I700
sg17
g71
sg19
g18
sg20
g1247
sg22
g23
sbag7
(g8
g9
NtRp1317
(dp1318
g12
g18
sg14
S'Courier'
p1319
sg16
I400
sg17
g18
sg19
g18
sg20
g1248
sg22
g23
sbag7
(g8
g9
NtRp1320
(dp1321
g12
g18
sg14
S'Luxi Serif'
p1322
sg16
I700
sg17
g18
sg19
g18
sg20
g1249
sg22
g23
sbag7
(g8
g9
NtRp1323
(dp1324
g12
g13
sg14
S'Luxi Sans'
p1325
sg16
I700
sg17
g18
sg19
g18
sg20
g1250
sg22
g23
sbag7
(g8
g9
NtRp1326
(dp1327
g12
g13
sg14
S'Luxi Sans'
p1328
sg16
I400
sg17
g18
sg19
g18
sg20
g1251
sg22
g23
sbag7
(g8
g9
NtRp1329
(dp1330
g12
g18
sg14
S'Luxi Sans'
p1331
sg16
I700
sg17
g18
sg19
g18
sg20
g1252
sg22
g23
sbag7
(g8
g9
NtRp1332
(dp1333
g12
g18
sg14
S'Nimbus Roman No9 L'
p1334
sg16
I700
sg17
g18
sg19
g18
sg20
g1253
sg22
g23
sbag7
(g8
g9
NtRp1335
(dp1336
g12
g18
sg14
S'Luxi Serif'
p1337
sg16
I400
sg17
g18
sg19
g18
sg20
g1254
sg22
g23
sbag7
(g8
g9
NtRp1338
(dp1339
g12
g13
sg14
S'URW Bookman L'
p1340
sg16
I400
sg17
g18
sg19
g18
sg20
g1255
sg22
g23
sbag7
(g8
g9
NtRp1341
(dp1342
g12
g13
sg14
S'Century Schoolbook L'
p1343
sg16
I700
sg17
g18
sg19
g18
sg20
g1256
sg22
g23
sbag7
(g8
g9
NtRp1344
(dp1345
g12
g13
sg14
S'Courier'
p1346
sg16
I700
sg17
g18
sg19
g18
sg20
g1257
sg22
g23
sbag7
(g8
g9
NtRp1347
(dp1348
g12
g18
sg14
S'Nimbus Sans L'
p1349
sg16
I700
sg17
g18
sg19
g18
sg20
g1258
sg22
g23
sbag7
(g8
g9
NtRp1350
(dp1351
g12
g18
sg14
S'Nimbus Sans L'
p1352
sg16
I400
sg17
g71
sg19
g18
sg20
g1259
sg22
g23
sbag7
(g8
g9
NtRp1353
(dp1354
g12
g18
sg14
S'Bitstream Charter'
p1355
sg16
I700
sg17
g18
sg19
g18
sg20
g1260
sg22
g23
sbag7
(g8
g9
NtRp1356
(dp1357
g12
g18
sg14
S'Nimbus Sans L'
p1358
sg16
I400
sg17
g18
sg19
g18
sg20
g1261
sg22
g23
sbag7
(g8
g9
NtRp1359
(dp1360
g12
g18
sg14
S'Luxi Mono'
p1361
sg16
I400
sg17
g18
sg19
g18
sg20
g1262
sg22
g23
sbag7
(g8
g9
NtRp1362
(dp1363
g12
g13
sg14
S'Luxi Serif'
p1364
sg16
I400
sg17
g18
sg19
g18
sg20
g1263
sg22
g23
sbag7
(g8
g9
NtRp1365
(dp1366
g12
g13
sg14
S'Courier 10 Pitch'
p1367
sg16
I700
sg17
g18
sg19
g18
sg20
g1264
sg22
g23
sbag7
(g8
g9
NtRp1368
(dp1369
g12
g13
sg14
S'Nimbus Sans L'
p1370
sg16
I700
sg17
g18
sg19
g18
sg20
g1265
sg22
g23
sbag7
(g8
g9
NtRp1371
(dp1372
g12
g18
sg14
S'Luxi Mono'
p1373
sg16
I700
sg17
g18
sg19
g18
sg20
g1266
sg22
g23
sbag7
(g8
g9
NtRp1374
(dp1375
g12
g13
sg14
S'Luxi Mono'
p1376
sg16
I400
sg17
g18
sg19
g18
sg20
g1267
sg22
g23
sbag7
(g8
g9
NtRp1377
(dp1378
g12
g13
sg14
S'Luxi Mono'
p1379
sg16
I700
sg17
g18
sg19
g18
sg20
g1268
sg22
g23
sbag7
(g8
g9
NtRp1380
(dp1381
g12
g13
sg14
S'Nimbus Mono L'
p1382
sg16
I400
sg17
g18
sg19
g18
sg20
g1269
sg22
g23
sbag7
(g8
g9
NtRp1383
(dp1384
g12
g13
sg14
S'Utopia'
p1385
sg16
I700
sg17
g18
sg19
g18
sg20
g1270
sg22
g23
sbag7
(g8
g9
NtRp1386
(dp1387
g12
g13
sg14
S'Courier'
p1388
sg16
I400
sg17
g18
sg19
g18
sg20
g1271
sg22
g23
sbag7
(g8
g9
NtRp1389
(dp1390
g12
g18
sg14
S'URW Bookman L'
p1391
sg16
I400
sg17
g18
sg19
g18
sg20
g1272
sg22
g23
sbag7
(g8
g9
NtRp1392
(dp1393
g12
g18
sg14
S'Dingbats'
p1394
sg16
I400
sg17
g18
sg19
g18
sg20
g1273
sg22
g23
sbag7
(g8
g9
NtRp1395
(dp1396
g12
g13
sg14
S'Nimbus Sans L'
p1397
sg16
I400
sg17
g18
sg19
g18
sg20
g1274
sg22
g23
sbag7
(g8
g9
NtRp1398
(dp1399
g12
g13
sg14
S'Nimbus Roman No9 L'
p1400
sg16
I400
sg17
g18
sg19
g18
sg20
g1275
sg22
g23
sbag7
(g8
g9
NtRp1401
(dp1402
g12
g18
sg14
S'URW Palladio L'
p1403
sg16
I500
sg17
g18
sg19
g18
sg20
g1276
sg22
g23
sbag7
(g8
g9
NtRp1404
(dp1405
g12
g18
sg14
S'Courier 10 Pitch'
p1406
sg16
I700
sg17
g18
sg19
g18
sg20
g1277
sg22
g23
sbag7
(g8
g9
NtRp1407
(dp1408
g12
g13
sg14
S'Nimbus Sans L'
p1409
sg16
I400
sg17
g71
sg19
g18
sg20
g1278
sg22
g23
sbag7
(g8
g9
NtRp1410
(dp1411
g12
g18
sg14
S'URW Bookman L'
p1412
sg16
I700
sg17
g18
sg19
g18
sg20
g1279
sg22
g23
sbag7
(g8
g9
NtRp1413
(dp1414
g12
g13
sg14
S'Bitstream Charter'
p1415
sg16
I700
sg17
g18
sg19
g18
sg20
g1280
sg22
g23
sbag7
(g8
g9
NtRp1416
(dp1417
g12
g13
sg14
S'URW Chancery L'
p1418
sg16
I500
sg17
g18
sg19
g18
sg20
g1281
sg22
g23
sbag7
(g8
g9
NtRp1419
(dp1420
g12
g18
sg14
S'Bitstream Charter'
p1421
sg16
I400
sg17
g18
sg19
g18
sg20
g1282
sg22
g23
sbag7
(g8
g9
NtRp1422
(dp1423
g12
g18
sg14
S'Century Schoolbook L'
p1424
sg16
I500
sg17
g18
sg19
g18
sg20
g1283
sg22
g23
sbag7
(g8
g9
NtRp1425
(dp1426
g12
g13
sg14
S'Century Schoolbook L'
p1427
sg16
I400
sg17
g18
sg19
g18
sg20
g1284
sg22
g23
sbag7
(g8
g9
NtRp1428
(dp1429
g12
g13
sg14
S'Luxi Serif'
p1430
sg16
I700
sg17
g18
sg19
g18
sg20
g1285
sg22
g23
sbag7
(g8
g9
NtRp1431
(dp1432
g12
g13
sg14
S'Bitstream Charter'
p1433
sg16
I400
sg17
g18
sg19
g18
sg20
g1286
sg22
g23
sbag7
(g8
g9
NtRp1434
(dp1435
g12
g18
sg14
S'Nimbus Mono L'
p1436
sg16
I400
sg17
g18
sg19
g18
sg20
g1287
sg22
g23
sbag7
(g8
g9
NtRp1437
(dp1438
g12
g18
sg14
S'Century Schoolbook L'
p1439
sg16
I700
sg17
g18
sg19
g18
sg20
g1288
sg22
g23
sbag7
(g8
g9
NtRp1440
(dp1441
g12
g13
sg14
S'Courier 10 Pitch'
p1442
sg16
I400
sg17
g18
sg19
g18
sg20
g1289
sg22
g23
sbag7
(g8
g9
NtRp1443
(dp1444
g12
g18
sg14
S'Utopia'
p1445
sg16
I400
sg17
g18
sg19
g18
sg20
g1290
sg22
g23
sbag7
(g8
g9
NtRp1446
(dp1447
g12
g18
sg14
S'Luxi Sans'
p1448
sg16
I400
sg17
g18
sg19
g18
sg20
g1291
sg22
g23
sbag7
(g8
g9
NtRp1449
(dp1450
g12
g13
sg14
S'URW Bookman L'
p1451
sg16
I700
sg17
g18
sg19
g18
sg20
g1292
sg22
g23
sbag7
(g8
g9
NtRp1452
(dp1453
g12
g18
sg14
S'Utopia'
p1454
sg16
I700
sg17
g18
sg19
g18
sg20
g1293
sg22
g23
sbag7
(g8
g9
NtRp1455
(dp1456
g12
g18
sg14
S'Courier'
p1457
sg16
I700
sg17
g18
sg19
g18
sg20
g1294
sg22
g23
sbag7
(g8
g9
NtRp1458
(dp1459
g12
g13
sg14
S'Nimbus Mono L'
p1460
sg16
I700
sg17
g18
sg19
g18
sg20
g1295
sg22
g23
sbag7
(g8
g9
NtRp1461
(dp1462
g12
g18
sg14
S'Standard Symbols L'
p1463
sg16
I400
sg17
g18
sg19
g18
sg20
g1296
sg22
g23
sbag7
(g8
g9
NtRp1464
(dp1465
g12
g18
sg14
S'Nimbus Mono L'
p1466
sg16
I700
sg17
g18
sg19
g18
sg20
g1297
sg22
g23
sbag7
(g8
g9
NtRp1467
(dp1468
g12
g13
sg14
S'URW Gothic L'
p1469
sg16
I600
sg17
g18
sg19
g18
sg20
g1298
sg22
g23
sbag7
(g8
g9
NtRp1470
(dp1471
g12
g18
sg14
S'Courier 10 Pitch'
p1472
sg16
I400
sg17
g18
sg19
g18
sg20
g1299
sg22
g23
sbag7
(g8
g9
NtRp1473
(dp1474
g12
g13
sg14
S'Utopia'
p1475
sg16
I400
sg17
g18
sg19
g18
sg20
g1300
sg22
g23
sbag7
(g8
g9
NtRp1476
(dp1477
g12
g18
sg14
S'URW Gothic L'
p1478
sg16
I600
sg17
g18
sg19
g18
sg20
g1301
sg22
g23
sbag7
(g8
g9
NtRp1479
(dp1480
g12
g13
sg14
S'Nimbus Roman No9 L'
p1481
sg16
I700
sg17
g18
sg19
g18
sg20
g1302
sg22
g23
sbag7
(g8
g9
NtRp1482
(dp1483
g12
g18
sg14
S'URW Gothic L'
p1484
sg16
I400
sg17
g18
sg19
g18
sg20
g1303
sg22
g23
sbag7
(g8
g9
NtRp1485
(dp1486
g12
g13
sg14
S'URW Gothic L'
p1487
sg16
I400
sg17
g18
sg19
g18
sg20
g1304
sg22
g23
sbag7
(g8
g9
NtRp1488
(dp1489
g12
g13
sg14
S'URW Palladio L'
p1490
sg16
I700
sg17
g18
sg19
g18
sg20
g1305
sg22
g23
sbag7
(g8
g9
NtRp1491
(dp1492
g12
g18
sg14
S'Nimbus Roman No9 L'
p1493
sg16
I400
sg17
g18
sg19
g18
sg20
g1306
sg22
g23
sbag7
(g8
g9
NtRp1494
(dp1495
g12
g13
sg14
S'URW Palladio L'
p1496
sg16
I400
sg17
g18
sg19
g18
sg20
g1307
sg22
g23
sbag7
(g8
g9
NtRp1497
(dp1498
g12
g18
sg14
S'URW Palladio L'
p1499
sg16
I700
sg17
g18
sg19
g18
sg20
g1308
sg22
g23
sbasb.